
main.elf:     file format elf32-littlenios2
main.elf
architecture: nios2:r1, flags 0x00000112:
EXEC_P, HAS_SYMS, D_PAGED
start address 0x0c0001bc

Program Header:
    LOAD off    0x00001000 vaddr 0x0c000000 paddr 0x0c000000 align 2**12
         filesz 0x00000020 memsz 0x00000020 flags r-x
    LOAD off    0x00001020 vaddr 0x0c000020 paddr 0x0c000020 align 2**12
         filesz 0x000226c4 memsz 0x000226c4 flags r-x
    LOAD off    0x000236e4 vaddr 0x0c0226e4 paddr 0x0c024214 align 2**12
         filesz 0x00001b30 memsz 0x00001b30 flags rw-
    LOAD off    0x00025d44 vaddr 0x0c025d44 paddr 0x0c025d44 align 2**12
         filesz 0x00000000 memsz 0x000824e4 flags rw-

Sections:
Idx Name          Size      VMA       LMA       File off  Algn
  0 .entry        00000020  0c000000  0c000000  00001000  2**5
                  CONTENTS, ALLOC, LOAD, READONLY, CODE
  1 .exceptions   0000019c  0c000020  0c000020  00001020  2**2
                  CONTENTS, ALLOC, LOAD, READONLY, CODE
  2 .text         000179c0  0c0001bc  0c0001bc  000011bc  2**2
                  CONTENTS, ALLOC, LOAD, READONLY, CODE
  3 .rodata       0000ab68  0c017b7c  0c017b7c  00018b7c  2**2
                  CONTENTS, ALLOC, LOAD, READONLY, DATA
  4 .rwdata       00001b30  0c0226e4  0c024214  000236e4  2**2
                  CONTENTS, ALLOC, LOAD, DATA, SMALL_DATA
  5 .bss          00082722  0c025d44  0c025d44  00025d44  2**2
                  ALLOC, SMALL_DATA
  6 .sdram        00000000  0c0a8228  0c0a8228  00025214  2**0
                  CONTENTS
  7 .comment      00000023  00000000  00000000  00025214  2**0
                  CONTENTS, READONLY
  8 .debug_aranges 00000f88  00000000  00000000  00025238  2**3
                  CONTENTS, READONLY, DEBUGGING
  9 .debug_info   0002b66e  00000000  00000000  000261c0  2**0
                  CONTENTS, READONLY, DEBUGGING
 10 .debug_abbrev 0000af42  00000000  00000000  0005182e  2**0
                  CONTENTS, READONLY, DEBUGGING
 11 .debug_line   0000d716  00000000  00000000  0005c770  2**0
                  CONTENTS, READONLY, DEBUGGING
 12 .debug_frame  00003758  00000000  00000000  00069e88  2**2
                  CONTENTS, READONLY, DEBUGGING
 13 .debug_str    000043b2  00000000  00000000  0006d5e0  2**0
                  CONTENTS, READONLY, DEBUGGING
 14 .debug_loc    00017732  00000000  00000000  00071992  2**0
                  CONTENTS, READONLY, DEBUGGING
 15 .debug_alt_sim_info 00000050  00000000  00000000  000890c4  2**2
                  CONTENTS, READONLY, DEBUGGING
 16 .debug_ranges 00001380  00000000  00000000  00089118  2**3
                  CONTENTS, READONLY, DEBUGGING
 17 .thread_model 00000003  00000000  00000000  0008eb86  2**0
                  CONTENTS, READONLY
 18 .cpu          0000000c  00000000  00000000  0008eb89  2**0
                  CONTENTS, READONLY
 19 .qsys         00000001  00000000  00000000  0008eb95  2**0
                  CONTENTS, READONLY
 20 .simulation_enabled 00000001  00000000  00000000  0008eb96  2**0
                  CONTENTS, READONLY
 21 .stderr_dev   0000000b  00000000  00000000  0008eb97  2**0
                  CONTENTS, READONLY
 22 .stdin_dev    0000000b  00000000  00000000  0008eba2  2**0
                  CONTENTS, READONLY
 23 .stdout_dev   0000000b  00000000  00000000  0008ebad  2**0
                  CONTENTS, READONLY
 24 .sopc_system_name 0000000b  00000000  00000000  0008ebb8  2**0
                  CONTENTS, READONLY
 25 .quartus_project_dir 0000001e  00000000  00000000  0008ebc3  2**0
                  CONTENTS, READONLY
 26 .jdi          00004b4c  00000000  00000000  0008ebe1  2**0
                  CONTENTS, READONLY
 27 .sopcinfo     00078593  00000000  00000000  0009372d  2**0
                  CONTENTS, READONLY
SYMBOL TABLE:
0c000000 l    d  .entry	00000000 .entry
0c000020 l    d  .exceptions	00000000 .exceptions
0c0001bc l    d  .text	00000000 .text
0c017b7c l    d  .rodata	00000000 .rodata
0c0226e4 l    d  .rwdata	00000000 .rwdata
0c025d44 l    d  .bss	00000000 .bss
0c0a8228 l    d  .sdram	00000000 .sdram
00000000 l    d  .comment	00000000 .comment
00000000 l    d  .debug_aranges	00000000 .debug_aranges
00000000 l    d  .debug_info	00000000 .debug_info
00000000 l    d  .debug_abbrev	00000000 .debug_abbrev
00000000 l    d  .debug_line	00000000 .debug_line
00000000 l    d  .debug_frame	00000000 .debug_frame
00000000 l    d  .debug_str	00000000 .debug_str
00000000 l    d  .debug_loc	00000000 .debug_loc
00000000 l    d  .debug_alt_sim_info	00000000 .debug_alt_sim_info
00000000 l    d  .debug_ranges	00000000 .debug_ranges
00000000 l    df *ABS*	00000000 ../main_bsp//obj/HAL/src/crt0.o
0c0001f4 l       .text	00000000 alt_after_alt_main
00000000 l    df *ABS*	00000000 alt_exception_entry.o
0c000094 l       .exceptions	00000000 alt_exception_unknown
00000000 l    df *ABS*	00000000 alt_irq_handler.c
00000000 l    df *ABS*	00000000 camera.c
0c017ba8 l     O .rodata	0000000e __FUNCTION__.2611
00000000 l    df *ABS*	00000000 camera_test.c
00000000 l    df *ABS*	00000000 debug.c
00000000 l    df *ABS*	00000000 graphics.c
00000000 l    df *ABS*	00000000 gui.c
00000000 l    df *ABS*	00000000 main.c
0c025d80 l     O .bss	000802c8 nj
0c0221ac l     O .rodata	00000040 njZZ
0c003768 l     F .text	00000048 njClip
0c0037b0 l     F .text	000003b8 njRowIDCT
0c003b68 l     F .text	000004a0 njColIDCT
0c004008 l     F .text	0000030c njShowBits
0c004314 l     F .text	00000088 njSkipBits
0c00439c l     F .text	00000040 njGetBits
0c0043dc l     F .text	00000050 njByteAlign
0c00442c l     F .text	000000a0 njSkip
0c0044cc l     F .text	00000048 njDecode16
0c004514 l     F .text	000000a8 njDecodeLength
0c0045bc l     F .text	0000003c njSkipMarker
0c0045f8 l     F .text	000006c4 njDecodeSOF
0c004cbc l     F .text	000002e4 njDecodeDHT
0c0a6048 l     O .bss	00000010 counts.2381
0c004fa0 l     F .text	00000148 njDecodeDQT
0c0050e8 l     F .text	000000a8 njDecodeDRI
0c005190 l     F .text	00000118 njGetVLC
0c0052a8 l     F .text	000002b8 njDecodeBlock
0c005560 l     F .text	00000490 njDecodeScan
0c0059f0 l     F .text	00000494 njUpsampleH
0c005e84 l     F .text	0000051c njUpsampleV
0c0063a0 l     F .text	00000428 njConvert
00000000 l    df *ABS*	00000000 motor.c
0c0241c8 l     O .rwdata	00000008 __FUNCTION__.1486
0c022358 l     O .rodata	0000000a __FUNCTION__.1490
0c022364 l     O .rodata	0000000a __FUNCTION__.1494
0c022370 l     O .rodata	0000000b __FUNCTION__.1498
0c02237c l     O .rodata	00000010 __FUNCTION__.1502
00000000 l    df *ABS*	00000000 serial.c
0c0076e0 l     F .text	00000040 handle_serial_interrupts
00000000 l    df *ABS*	00000000 touch_screen.c
00000000 l    df *ABS*	00000000 divdf3.c
00000000 l    df *ABS*	00000000 fixdfsi.c
00000000 l    df *ABS*	00000000 floatsidf.c
00000000 l    df *ABS*	00000000 libgcc2.c
00000000 l    df *ABS*	00000000 lib2-divmod.c
0c008bac l     F .text	0000006c udivmodsi4
00000000 l    df *ABS*	00000000 libgcc2.c
00000000 l    df *ABS*	00000000 assert.c
00000000 l    df *ABS*	00000000 fiprintf.c
00000000 l    df *ABS*	00000000 impure.c
0c0226e4 l     O .rwdata	00000424 impure_data
00000000 l    df *ABS*	00000000 malloc.c
00000000 l    df *ABS*	00000000 mallocr.c
00000000 l    df *ABS*	00000000 memcpy.c
00000000 l    df *ABS*	00000000 memset.c
00000000 l    df *ABS*	00000000 printf.c
00000000 l    df *ABS*	00000000 putchar.c
00000000 l    df *ABS*	00000000 puts.c
00000000 l    df *ABS*	00000000 sbrkr.c
00000000 l    df *ABS*	00000000 strlen.c
00000000 l    df *ABS*	00000000 vfiprintfr_1.c
00000000 l    df *ABS*	00000000 vfprintf.c
0c022516 l     O .rodata	00000010 zeroes.4181
0c022526 l     O .rodata	00000010 blanks.4180
00000000 l    df *ABS*	00000000 wsetup.c
00000000 l    df *ABS*	00000000 abort.c
00000000 l    df *ABS*	00000000 dtoa.c
0c00bb9c l     F .text	00000200 quorem
00000000 l    df *ABS*	00000000 fflush.c
00000000 l    df *ABS*	00000000 findfp.c
0c00d71c l     F .text	00000008 __fp_lock
0c00d724 l     F .text	00000008 __fp_unlock
0c00d738 l     F .text	000001a0 __sinit.part.1
00000000 l    df *ABS*	00000000 mallocr.c
00000000 l    df *ABS*	00000000 fvwrite.c
00000000 l    df *ABS*	00000000 fwalk.c
00000000 l    df *ABS*	00000000 int_errno.c
00000000 l    df *ABS*	00000000 locale.c
0c022f30 l     O .rwdata	00000020 lc_ctype_charset
0c022f10 l     O .rwdata	00000020 lc_message_charset
0c022f50 l     O .rwdata	00000038 lconv
00000000 l    df *ABS*	00000000 makebuf.c
00000000 l    df *ABS*	00000000 memchr.c
00000000 l    df *ABS*	00000000 memmove.c
00000000 l    df *ABS*	00000000 mprec.c
0c022554 l     O .rodata	0000000c p05.2678
00000000 l    df *ABS*	00000000 putc.c
00000000 l    df *ABS*	00000000 mallocr.c
00000000 l    df *ABS*	00000000 s_fpclassify.c
00000000 l    df *ABS*	00000000 signal.c
00000000 l    df *ABS*	00000000 signalr.c
00000000 l    df *ABS*	00000000 stdio.c
00000000 l    df *ABS*	00000000 strcmp.c
00000000 l    df *ABS*	00000000 vfprintf.c
0c0105a8 l     F .text	000000fc __sprint_r.part.0
0c022688 l     O .rodata	00000010 blanks.4125
0c022678 l     O .rodata	00000010 zeroes.4126
00000000 l    df *ABS*	00000000 wbuf.c
00000000 l    df *ABS*	00000000 writer.c
00000000 l    df *ABS*	00000000 closer.c
00000000 l    df *ABS*	00000000 mallocr.c
00000000 l    df *ABS*	00000000 fclose.c
00000000 l    df *ABS*	00000000 fputwc.c
00000000 l    df *ABS*	00000000 fstatr.c
00000000 l    df *ABS*	00000000 isattyr.c
00000000 l    df *ABS*	00000000 lseekr.c
00000000 l    df *ABS*	00000000 readr.c
00000000 l    df *ABS*	00000000 wcrtomb.c
00000000 l    df *ABS*	00000000 wctomb_r.c
00000000 l    df *ABS*	00000000 libgcc2.c
00000000 l    df *ABS*	00000000 libgcc2.c
00000000 l    df *ABS*	00000000 adddf3.c
00000000 l    df *ABS*	00000000 eqdf2.c
00000000 l    df *ABS*	00000000 gedf2.c
00000000 l    df *ABS*	00000000 ledf2.c
00000000 l    df *ABS*	00000000 muldf3.c
00000000 l    df *ABS*	00000000 subdf3.c
00000000 l    df *ABS*	00000000 floatunsidf.c
00000000 l    df *ABS*	00000000 alt_close.c
0c014a3c l     F .text	00000050 alt_get_errno
00000000 l    df *ABS*	00000000 alt_dev.c
0c014b5c l     F .text	0000002c alt_dev_null_write
00000000 l    df *ABS*	00000000 alt_errno.c
00000000 l    df *ABS*	00000000 alt_exit.c
00000000 l    df *ABS*	00000000 alt_fstat.c
0c014bbc l     F .text	00000050 alt_get_errno
00000000 l    df *ABS*	00000000 alt_getpid.c
00000000 l    df *ABS*	00000000 alt_irq_register.c
00000000 l    df *ABS*	00000000 alt_irq_vars.c
00000000 l    df *ABS*	00000000 alt_isatty.c
0c014e8c l     F .text	00000050 alt_get_errno
00000000 l    df *ABS*	00000000 alt_kill.c
0c014f80 l     F .text	00000050 alt_get_errno
00000000 l    df *ABS*	00000000 alt_load.c
0c015100 l     F .text	00000064 alt_load_section
00000000 l    df *ABS*	00000000 alt_lseek.c
0c0151e4 l     F .text	00000050 alt_get_errno
00000000 l    df *ABS*	00000000 alt_main.c
00000000 l    df *ABS*	00000000 alt_malloc_lock.c
00000000 l    df *ABS*	00000000 alt_read.c
0c0153c0 l     F .text	00000050 alt_get_errno
00000000 l    df *ABS*	00000000 alt_release_fd.c
00000000 l    df *ABS*	00000000 alt_sbrk.c
0c024208 l     O .rwdata	00000004 heap_end
00000000 l    df *ABS*	00000000 alt_usleep.c
00000000 l    df *ABS*	00000000 alt_write.c
0c01564c l     F .text	00000050 alt_get_errno
00000000 l    df *ABS*	00000000 alt_sys_init.c
0c015794 l     F .text	00000038 alt_dev_reg
0c023130 l     O .rwdata	00001060 jtag_uart_0
0c024190 l     O .rwdata	0000002c character_lcd_0
00000000 l    df *ABS*	00000000 altera_avalon_jtag_uart_fd.c
00000000 l    df *ABS*	00000000 altera_avalon_jtag_uart_init.c
0c015a98 l     F .text	00000204 altera_avalon_jtag_uart_irq
0c015c9c l     F .text	000000a8 altera_avalon_jtag_uart_timeout
00000000 l    df *ABS*	00000000 altera_avalon_jtag_uart_ioctl.c
00000000 l    df *ABS*	00000000 altera_avalon_jtag_uart_read.c
00000000 l    df *ABS*	00000000 altera_avalon_jtag_uart_write.c
00000000 l    df *ABS*	00000000 altera_avalon_timer_sc.c
0c0162bc l     F .text	00000074 alt_avalon_timer_sc_irq
00000000 l    df *ABS*	00000000 altera_up_avalon_character_lcd.c
00000000 l    df *ABS*	00000000 alt_alarm_start.c
00000000 l    df *ABS*	00000000 alt_busy_sleep.c
00000000 l    df *ABS*	00000000 alt_dcache_flush_all.c
00000000 l    df *ABS*	00000000 alt_dev_llist_insert.c
0c016b14 l     F .text	00000050 alt_get_errno
00000000 l    df *ABS*	00000000 alt_do_ctors.c
00000000 l    df *ABS*	00000000 alt_do_dtors.c
00000000 l    df *ABS*	00000000 alt_find_dev.c
00000000 l    df *ABS*	00000000 alt_icache_flush_all.c
00000000 l    df *ABS*	00000000 alt_iic.c
00000000 l    df *ABS*	00000000 alt_iic_isr_register.c
00000000 l    df *ABS*	00000000 alt_io_redirect.c
0c017050 l     F .text	000000c0 alt_open_fd
00000000 l    df *ABS*	00000000 alt_open.c
0c017188 l     F .text	00000050 alt_get_errno
0c0171d8 l     F .text	000000cc alt_file_locked
00000000 l    df *ABS*	00000000 alt_tick.c
00000000 l    df *ABS*	00000000 altera_nios2_qsys_irq.c
00000000 l    df *ABS*	00000000 alt_find_file.c
00000000 l    df *ABS*	00000000 alt_get_fd.c
00000000 l    df *ABS*	00000000 alt_icache_flush.c
00000000 l    df *ABS*	00000000 atexit.c
00000000 l    df *ABS*	00000000 exit.c
00000000 l    df *ABS*	00000000 memcmp.c
00000000 l    df *ABS*	00000000 __atexit.c
00000000 l    df *ABS*	00000000 __call_atexit.c
0c009848 g     F .text	00000018 putchar
0c00f7d4 g     F .text	00000074 _mprec_log10
0c00f8c0 g     F .text	0000008c __any_on
0c012068 g     F .text	00000054 _isatty_r
0c007720 g     F .text	0000008c init_serial
0c022560 g     O .rodata	00000028 __mprec_tinytens
0c015308 g     F .text	00000078 alt_main
0c009860 g     F .text	000000b8 _puts_r
0c0a8128 g     O .bss	00000100 alt_irq
0c000c24 g     F .text	000000b0 vertical_line
0c0120bc g     F .text	0000005c _lseek_r
0c0a6080 g     O .bss	00000065 camera_buffer
0c024214 g       *ABS*	00000000 __flash_rwdata_start
0c01642c g     F .text	0000003c alt_up_character_lcd_send_cmd
0c013760 g     F .text	00000084 .hidden __eqdf2
0c00060c g     F .text	00000030 resume_picture
0c000560 g     F .text	0000007c set_image_resolution
0c0a8228 g       *ABS*	00000000 __alt_heap_start
0c0067c8 g     F .text	0000003c njInit
0c025d47 g     O .bss	00000001 motor_speed
0c01036c g     F .text	00000058 _kill_r
0c0016cc g     F .text	000007c4 draw_button
0c009804 g     F .text	0000003c printf
0c017e5a g     O .rodata	00000a64 Font10x14
0c012174 g     F .text	0000009c _wcrtomb_r
0c0a60e8 g     O .bss	00001f40 XYStack
0c010130 g     F .text	00000084 _signal_r
0c000b74 g     F .text	000000b0 horizontal_line
0c000d74 g     F .text	0000008c rectangle
0c0104a0 g     F .text	0000005c __sseek
0c00da6c g     F .text	00000010 __sinit
0c011a3c g     F .text	00000154 __swbuf_r
0c000384 g     F .text	000000ac run_command
0c00e4e4 g     F .text	0000007c _setlocale_r
0c007c44 g     F .text	00000030 WaitForTouch
0c00d8d8 g     F .text	00000064 __sfmoreglue
0c003340 g     F .text	0000008c security_callback
0c0153a0 g     F .text	00000020 __malloc_unlock
0c0068cc g     F .text	00000218 njDecode
0c007b94 g     F .text	00000080 init_touch
0c0079a4 g     F .text	00000090 serial_read_timeout
0c0028bc g     F .text	000000e0 poll_touch
0c00e864 g     F .text	0000015c memmove
0c000e00 g     F .text	00000158 right_triangle
0c00da54 g     F .text	00000018 _cleanup
0c00e9c0 g     F .text	000000a8 _Balloc
0c0137e4 g     F .text	000000e0 .hidden __gtdf2
00000000  w      *UND*	00000000 __errno
0c0163b8 g     F .text	00000074 get_DDRAM_addr
0c007a34 g     F .text	00000030 test_for_received_data
0c000000 g     F .entry	0000001c __reset
0c025d48 g     O .bss	00000001 edge_capture
0c000020 g       *ABS*	00000000 __flash_exceptions_start
0c000730 g     F .text	00000044 camera_reset
0c012010 g     F .text	00000058 _fstat_r
0c0077ac g     F .text	00000050 enable_device_recv_irq
0c006b0c g     F .text	00000028 njGetHeight
0c025d58 g     O .bss	00000004 errno
0c01041c g     F .text	00000008 __seofread
0c025d70 g     O .bss	00000004 alt_argv
0c02c1bc g       *ABS*	00000000 _gp
0c01561c g     F .text	00000030 usleep
0c014cbc g     F .text	00000020 getpid
0c022fb0 g     O .rwdata	00000180 alt_fd_list
0c009840 g     F .text	00000008 _putchar_r
0c016cc0 g     F .text	00000090 alt_find_dev
0c00957c g     F .text	00000138 memcpy
0c0165c8 g     F .text	00000050 alt_up_character_lcd_write_fd
0c002534 g     F .text	00000190 OutGraphicsCharFont2a
0c00d72c g     F .text	0000000c _cleanup_r
0c008a78 g     F .text	000000d0 .hidden __floatsidf
0c017110 g     F .text	00000078 alt_io_redirect
0c0138c4 g     F .text	000000e0 .hidden __ltdf2
0c017b7c g       *ABS*	00000000 __DTOR_END__
0c006c04 g     F .text	000006e8 cam_unit_test
0c009918 g     F .text	00000014 puts
0c007e34 g     F .text	00000178 get_press
0c0075c8 g     F .text	000000a8 move_right
0c010054 g     F .text	00000074 __fpclassifyd
0c00f730 g     F .text	000000a4 __ratio
0c0034d4 g     F .text	000000a8 right_callback
0c025d44 g     O .bss	00000002 frame_ptr
0c011a18 g     F .text	00000024 __vfiprintf_internal
0c015e98 g     F .text	0000020c altera_avalon_jtag_uart_read
0c008dac g     F .text	00000014 malloc
0c007524 g     F .text	000000a4 move_left
0c0097d8 g     F .text	0000002c _printf_r
0c008cc8 g     F .text	00000008 .hidden __udivsi3
0c014edc g     F .text	000000a4 isatty
0c0101b4 g     F .text	000000bc _raise_r
0c008cd8 g     F .text	00000064 __assert_func
0c0225b0 g     O .rodata	000000c8 __mprec_tens
0c00342c g     F .text	000000a8 left_callback
0c01c950 g     O .rodata	00005794 Font38x59
0c00e560 g     F .text	0000000c __locale_charset
0c00299c g     F .text	00000380 retrieve_and_process_image
0c017780 g     F .text	0000008c alt_icache_flush
0c025d54 g     O .bss	00000004 __malloc_top_pad
0c00063c g     F .text	000000f4 frame_length
0c0103c4 g     F .text	00000004 _getpid_r
0c007468 g     F .text	000000bc move_down
0c0241c0 g     O .rwdata	00000004 Next
0c0241e4 g     O .rwdata	00000004 __mb_cur_max
0c007fac g     F .text	00000178 get_release
0c00e590 g     F .text	0000000c _localeconv_r
0c0027ac g     F .text	000000a8 print_image
0c00edc0 g     F .text	0000003c __i2b
0c00ded0 g     F .text	000004a4 __sfvwrite_r
0c010270 g     F .text	000000a8 __sigtramp_r
0c001208 g     F .text	00000158 up_triangle
0c00992c g     F .text	00000054 _sbrk_r
0c012118 g     F .text	0000005c _read_r
0c0241fc g     O .rwdata	00000004 alt_max_fd
0c011d20 g     F .text	00000100 _fclose_r
0c000cd4 g     F .text	000000a0 line
0c00d6ec g     F .text	00000030 fflush
0c025d50 g     O .bss	00000004 __malloc_max_sbrked_mem
0c014cdc g     F .text	000001b0 alt_irq_register
0c012ec4 g     F .text	0000089c .hidden __adddf3
0c00f4d8 g     F .text	0000011c __b2d
0c012934 g     F .text	00000590 .hidden __umoddi3
0c015234 g     F .text	000000d4 lseek
0c0241d4 g     O .rwdata	00000004 _global_impure_ptr
0c00fab4 g     F .text	000005a0 _realloc_r
0c0a8228 g       *ABS*	00000000 __bss_end
0c016f60 g     F .text	000000f0 alt_iic_isr_register
0c017494 g     F .text	00000104 alt_tick
0c012374 g     F .text	000005c0 .hidden __udivdi3
0c0009ec g     F .text	0000007c write_a_pixel
0c011e34 g     F .text	00000184 _fputwc_r
0c022588 g     O .rodata	00000028 __mprec_bigtens
0c00eba4 g     F .text	00000104 __s2b
0c00bb84 g     F .text	00000018 abort
0c014998 g     F .text	000000a4 .hidden __floatunsidf
0c00f280 g     F .text	00000060 __mcmp
0c00159c g     F .text	00000098 reticle
0c00da8c g     F .text	00000018 __fp_lock_all
0c016f14 g     F .text	0000004c alt_ic_irq_enabled
0c000a68 g     F .text	00000090 read_a_pixel
0c0173fc g     F .text	00000098 alt_alarm_stop
0c0188be g     O .rodata	0000140a Font16x27
0c025d68 g     O .bss	00000004 alt_irq_active
0c0000ec g     F .exceptions	000000d0 alt_irq_handler
0c022f88 g     O .rwdata	00000028 alt_dev_null
0c007b24 g     F .text	00000070 verify_touch_report
0c025d46 g     O .bss	00000001 buffer_length
0c001f84 g     F .text	00000404 fill
0c002388 g     F .text	000001ac OutGraphicsCharFont1
0c01685c g     F .text	00000034 alt_up_character_lcd_cursor_blink_on
0c016af8 g     F .text	0000001c alt_dcache_flush_all
0c00eca8 g     F .text	00000068 __hi0bits
0c002854 g     F .text	00000068 check_if_pressed
0c0002fc g     F .text	00000088 verify_response
0c000430 g     F .text	00000058 camera_frame_buff_ctrl
0c0089f0 g     F .text	00000088 .hidden __fixdfsi
0c024214 g       *ABS*	00000000 __ram_rwdata_end
0c0241f4 g     O .rwdata	00000008 alt_dev_list
0c01569c g     F .text	000000f8 write
0c00f94c g     F .text	000000a0 _putc_r
0c003228 g     F .text	0000008c manual_callback
0c0226e4 g       *ABS*	00000000 __ram_rodata_end
0c014c0c g     F .text	000000b0 fstat
0c014fd0 g     F .text	00000130 kill
0c0138c4 g     F .text	000000e0 .hidden __ledf2
0c00781c g     F .text	00000054 serial_putchar
0c007c14 g     F .text	00000030 ScreenTouched
0c007370 g     F .text	00000040 init_motors
0c00eff8 g     F .text	00000140 __pow5mult
0c025d64 g     O .bss	00000004 __nlocale_changed
0c0106bc g     F .text	0000135c ___vfiprintf_internal_r
0c008cd0 g     F .text	00000008 .hidden __umodsi3
0c0a8228 g       *ABS*	00000000 end
0c0159d4 g     F .text	000000c4 altera_avalon_jtag_uart_init
0c017b7c g       *ABS*	00000000 __CTOR_LIST__
10000000 g       *ABS*	00000000 __alt_stack_pointer
0c016330 g     F .text	00000088 alt_avalon_timer_sc_init
0c008b48 g     F .text	00000064 .hidden __clzsi2
0c0160a4 g     F .text	00000218 altera_avalon_jtag_uart_write
0c00da7c g     F .text	00000004 __sfp_lock_acquire
0c00e77c g     F .text	000000e8 memchr
0c0164dc g     F .text	00000078 alt_up_character_lcd_write
0c009a34 g     F .text	00001ffc ___vfprintf_internal_r
0c001360 g     F .text	000001e0 circle
0c00dbe0 g     F .text	000002f0 _free_r
0c00e56c g     F .text	00000010 __locale_mb_cur_max
0c001e90 g     F .text	0000005c push_pixel
0c0179e8 g     F .text	00000194 __call_exitprocs
0c025d60 g     O .bss	00000004 __mlocale_changed
0c0241dc g     O .rwdata	00000004 __malloc_sbrk_base
0c0001bc g     F .text	0000003c _start
0c025d78 g     O .bss	00000004 _alt_tick_rate
0c00f138 g     F .text	00000148 __lshift
0c025d7c g     O .bss	00000004 _alt_nticks
0c01032c g     F .text	0000001c signal
0c015410 g     F .text	000000fc read
0c015800 g     F .text	00000070 alt_sys_init
0c016714 g     F .text	00000088 alt_up_character_lcd_shift_display
0c0077fc g     F .text	00000020 test_irq
0c0178d4 g     F .text	00000114 __register_exitproc
0c007ae0 g     F .text	00000044 get_raw_coordinates
0c00edfc g     F .text	000001fc __multiply
0c01679c g     F .text	0000008c alt_up_character_lcd_erase_pos
0c000974 g     F .text	00000078 print_byte_array
0c006ae4 g     F .text	00000028 njGetWidth
0c015d44 g     F .text	00000068 altera_avalon_jtag_uart_close
0c0226e4 g       *ABS*	00000000 __ram_rwdata_start
0c017b7c g       *ABS*	00000000 __ram_rodata_start
0c0a6058 g     O .bss	00000028 __malloc_current_mallinfo
0c00f5f4 g     F .text	0000013c __d2b
0c015870 g     F .text	00000060 altera_avalon_jtag_uart_read_fd
0c0176cc g     F .text	000000b4 alt_get_fd
0c0169d0 g     F .text	00000128 alt_busy_sleep
0c011c08 g     F .text	00000054 _close_r
0c001634 g     F .text	00000098 print_display
0c017858 g     F .text	0000007c memcmp
0c015930 g     F .text	00000050 altera_avalon_jtag_uart_close_fd
0c0073b0 g     F .text	000000b8 move_up
0c0a8228 g       *ABS*	00000000 __alt_stack_base
0c015980 g     F .text	00000054 altera_avalon_jtag_uart_ioctl_fd
0c00ba54 g     F .text	00000130 __swsetup_r
0c008124 g     F .text	000008cc .hidden __divdf3
0c00d93c g     F .text	00000118 __sfp
0c00f848 g     F .text	00000078 __copybits
0c000270 g     F .text	0000008c read_response
0c022b08 g     O .rwdata	00000408 __malloc_av_
0c00da88 g     F .text	00000004 __sinit_lock_release
0c0078b4 g     F .text	0000007c serial_write
0c0139a4 g     F .text	00000724 .hidden __muldf3
0c0103c8 g     F .text	00000054 __sread
0c0175b8 g     F .text	00000114 alt_find_file
0c016b64 g     F .text	000000a4 alt_dev_llist_insert
0c015380 g     F .text	00000020 __malloc_lock
0c01556c g     F .text	000000b0 sbrk
0c00d4c4 g     F .text	00000228 _fflush_r
0c011c5c g     F .text	000000c4 _calloc_r
0c0001f8 g     F .text	00000078 send_command
0c006b34 g     F .text	00000030 njIsColor
0c025d44 g       *ABS*	00000000 __bss_start
0c0096b4 g     F .text	00000124 memset
0c0072ec g     F .text	00000084 main
0c025d74 g     O .bss	00000004 alt_envp
0c025d4c g     O .bss	00000004 __malloc_max_total_mem
0c0158d0 g     F .text	00000060 altera_avalon_jtag_uart_write_fd
0c011b90 g     F .text	0000001c __swbuf
0c003624 g     F .text	000000a8 down_callback
0c01668c g     F .text	00000088 alt_up_character_lcd_shift_cursor
0c007670 g     F .text	00000070 set_motor_speed
0c0104fc g     F .text	00000008 __sclose
10000000 g       *ABS*	00000000 __alt_heap_limit
0c011e20 g     F .text	00000014 fclose
0c00bd9c g     F .text	00001728 _dtoa_r
0c008dd4 g     F .text	000007a8 _malloc_r
0c0122e8 g     F .text	00000030 __ascii_wctomb
0c0004d4 g     F .text	0000008c get_image_resolution
0c024200 g     O .rwdata	00000004 alt_errno
0c007c74 g     F .text	000001c0 get_press_timeout
0c008d50 g     F .text	00000020 _fiprintf_r
0c010348 g     F .text	00000010 _init_signal
0c00e374 g     F .text	000000b8 _fwalk
0c00f9ec g     F .text	000000c8 putc
0c008c18 g     F .text	00000054 .hidden __divsi3
0c01649c g     F .text	00000040 alt_up_character_lcd_open_dev
0c00dabc g     F .text	00000124 _malloc_trim_r
0c017b7c g       *ABS*	00000000 __CTOR_END__
0c0241d0 g     O .rwdata	00000003 ENABLE_TOUCH_COMMAND
0c0031ac g     F .text	0000007c proccess_buttons
0c016468 g     F .text	00000034 alt_up_character_lcd_init
0c010504 g     F .text	000000a4 strcmp
0c017b7c g       *ABS*	00000000 __flash_rodata_start
0c017b7c g       *ABS*	00000000 __DTOR_LIST__
0c001eec g     F .text	00000060 pop_pixel
0c007a64 g     F .text	0000007c wait_for_received_data
0c013760 g     F .text	00000084 .hidden __nedf2
0c0157cc g     F .text	00000034 alt_irq_init
0c01550c g     F .text	00000060 alt_release_fd
0c016828 g     F .text	00000034 alt_up_character_lcd_cursor_off
0c02238c g     O .rodata	00000100 .hidden __clz_tab
0c025d5c g     O .bss	00000004 _PathLocale
0c0026c4 g     F .text	000000e8 init_palette
0c01780c g     F .text	00000014 atexit
0c011bac g     F .text	0000005c _write_r
0c00086c g     F .text	00000108 read_picture_to_ptr
0c00e59c g     F .text	0000001c setlocale
0c0241d8 g     O .rwdata	00000004 _impure_ptr
0c025d6c g     O .bss	00000004 alt_argc
0c016c64 g     F .text	0000005c _do_dtors
0c00e588 g     F .text	00000008 __locale_cjk_lang
0c0032b4 g     F .text	0000008c automatic_callback
0c017bc0 g     O .rodata	00000299 Font5x7
0c000020 g       .exceptions	00000000 alt_irq_entry
0c00f478 g     F .text	00000060 __ulp
0c00daa4 g     F .text	00000018 __fp_unlock_all
0c0241c4 g     O .rwdata	00000004 button_array_size
0c0241ec g     O .rwdata	00000008 alt_fs_list
0c000774 g     F .text	000000f8 read_picture
0c002d1c g     F .text	00000490 init_gui
0c000020 g       *ABS*	00000000 __ram_exceptions_start
0c00e5b8 g     F .text	0000000c localeconv
0c007930 g     F .text	00000074 serial_read
0c016d80 g     F .text	00000050 alt_ic_isr_register
0c024214 g       *ABS*	00000000 _edata
0c0a8228 g       *ABS*	00000000 _end
0c0001bc g       *ABS*	00000000 __ram_exceptions_end
0c015dac g     F .text	000000ec altera_avalon_jtag_uart_ioctl
0c0010b0 g     F .text	00000158 down_triangle
0c001f4c g     F .text	00000038 is_stack_empty
0c0033cc g     F .text	00000060 fire_callback
0c016e70 g     F .text	000000a4 alt_ic_irq_disable
0c0036cc g     F .text	0000009c buttons_not_pressed
0c010424 g     F .text	0000007c __swrite
0c0241e0 g     O .rwdata	00000004 __malloc_trim_threshold
0c017598 g     F .text	00000020 altera_nios2_qsys_irq_init
0c00e57c g     F .text	0000000c __locale_msgcharset
0c017820 g     F .text	00000038 exit
0c008d70 g     F .text	0000003c fiprintf
0c009a18 g     F .text	0000001c _vfiprintf_r
0c00e42c g     F .text	000000b8 _fwalk_reent
0c00f2e0 g     F .text	00000198 __mdiff
0c008c6c g     F .text	0000005c .hidden __modsi3
10000000 g       *ABS*	00000000 __alt_data_end
0c000020 g     F .exceptions	00000000 alt_exception
0c006bbc g     F .text	00000048 njGetImageSize
0c00da80 g     F .text	00000004 __sfp_lock_release
0c000000 g       *ABS*	00000000 __alt_mem_sdram
0c016554 g     F .text	00000074 alt_up_character_lcd_string
0c006b64 g     F .text	00000058 njGetImage
0c019cc8 g     O .rodata	00002c88 Font22x40
0c0005dc g     F .text	00000030 take_picture
0c014b88 g     F .text	00000034 _exit
0c016890 g     F .text	00000140 alt_alarm_start
0c000488 g     F .text	0000004c cam_init
0c00e5c4 g     F .text	000001b8 __smakebuf_r
0c009980 g     F .text	00000098 strlen
0c0100c8 g     F .text	00000068 _init_signal_r
0c0172a4 g     F .text	00000158 open
0c0137e4 g     F .text	000000e0 .hidden __gedf2
0c006804 g     F .text	000000c8 njDone
0c008d3c g     F .text	00000014 __assert
0c0241e8 g     O .rwdata	00000004 __wctomb
0c0106a4 g     F .text	00000018 __sprint_r
0c016d50 g     F .text	00000030 alt_icache_flush_all
0c00357c g     F .text	000000a8 up_callback
0c016618 g     F .text	00000074 alt_up_character_lcd_set_cursor_pos
0c024204 g     O .rwdata	00000004 alt_priority_mask
0c007870 g     F .text	00000044 serial_getchar
0c000f58 g     F .text	00000158 left_triangle
0c000af8 g     F .text	0000007c program_palette
0c016dd0 g     F .text	000000a0 alt_ic_irq_enable
0c00ba30 g     F .text	00000024 __vfprintf_internal
0c012318 g     F .text	0000005c _wctomb_r
0c001540 g     F .text	0000005c clear_screen
0c0140c8 g     F .text	000008d0 .hidden __subdf3
0c00ed10 g     F .text	000000b0 __lo0bits
0c02420c g     O .rwdata	00000008 alt_alarm_list
0c016c08 g     F .text	0000005c _do_ctors
0c010358 g     F .text	00000014 __sigtramp
0c0a8028 g     O .bss	00000100 button_array
0c012210 g     F .text	000000d8 wcrtomb
0c014a8c g     F .text	000000d0 close
0c015164 g     F .text	00000080 alt_load
0c0241bc g     O .rwdata	00000002 COMMAND_HEADER
0c011fb8 g     F .text	00000058 fputwc
0c010318 g     F .text	00000014 raise
0c008dc0 g     F .text	00000014 free
0c00da84 g     F .text	00000004 __sinit_lock_acquire
0c00ea90 g     F .text	00000114 __multadd
0c00ea68 g     F .text	00000028 _Bfree



Disassembly of section .entry:

0c000000 <__reset>:
#if NIOS2_ICACHE_SIZE > 0 && defined(ALT_ALLOW_CODE_AT_RESET) && !defined(ALT_SIM_OPTIMIZE)
    /* Assume the instruction cache size is always a power of two. */
#if NIOS2_ICACHE_SIZE > 0x8000
    movhi r2, %hi(NIOS2_ICACHE_SIZE)
#else
    movui r2, NIOS2_ICACHE_SIZE
 c000000:	00840014 	movui	r2,4096
#endif

0:
    initi r2
 c000004:	1001483a 	initi	r2
    addi r2, r2, -NIOS2_ICACHE_LINE_SIZE
 c000008:	10bff804 	addi	r2,r2,-32
    bgt r2, zero, 0b
 c00000c:	00bffd16 	blt	zero,r2,c000004 <__alt_data_end+0xfc000004>
 * Jump to the _start entry point in the .text section if reset code
 * is allowed or if optimizing for RTL simulation.
 */
#if defined(ALT_ALLOW_CODE_AT_RESET) || defined(ALT_SIM_OPTIMIZE)
    /* Jump to the _start entry point in the .text section. */
    movhi r1, %hi(_start)
 c000010:	00430034 	movhi	at,3072
    ori r1, r1, %lo(_start)
 c000014:	08406f14 	ori	at,at,444
    jmp r1
 c000018:	0800683a 	jmp	at
 c00001c:	00000000 	call	0 <__alt_mem_sdram-0xc000000>

Disassembly of section .exceptions:

0c000020 <alt_exception>:

#else /* ALT_EXCEPTION_STACK disabled */
        /* 
         * Reserve space on normal stack for registers about to be pushed.
         */
        addi  sp, sp, -76
 c000020:	deffed04 	addi	sp,sp,-76
         * documentation for details).
         *
         * Leave a gap in the stack frame at 4(sp) for the muldiv handler to
         * store zero into.
         */
        stw   ra,  0(sp)
 c000024:	dfc00015 	stw	ra,0(sp)
        stw   r1,   8(sp)
 c000028:	d8400215 	stw	at,8(sp)
        stw   r2,  12(sp)
 c00002c:	d8800315 	stw	r2,12(sp)
        stw   r3,  16(sp)
 c000030:	d8c00415 	stw	r3,16(sp)
        stw   r4,  20(sp)
 c000034:	d9000515 	stw	r4,20(sp)
        stw   r5,  24(sp)
 c000038:	d9400615 	stw	r5,24(sp)
        stw   r6,  28(sp)
 c00003c:	d9800715 	stw	r6,28(sp)
        stw   r7,  32(sp)
 c000040:	d9c00815 	stw	r7,32(sp)
        rdctl r5, estatus   /* Read early to avoid usage stall */
 c000044:	000b307a 	rdctl	r5,estatus
        stw   r8,  36(sp)
 c000048:	da000915 	stw	r8,36(sp)
        stw   r9,  40(sp)
 c00004c:	da400a15 	stw	r9,40(sp)
        stw   r10, 44(sp)
 c000050:	da800b15 	stw	r10,44(sp)
        stw   r11, 48(sp)
 c000054:	dac00c15 	stw	r11,48(sp)
        stw   r12, 52(sp)
 c000058:	db000d15 	stw	r12,52(sp)
        stw   r13, 56(sp)
 c00005c:	db400e15 	stw	r13,56(sp)
        stw   r14, 60(sp)
 c000060:	db800f15 	stw	r14,60(sp)
        stw   r15, 64(sp)
 c000064:	dbc01015 	stw	r15,64(sp)
        /*
         * ea-4 contains the address of the instruction being executed
         * when the exception occured. For interrupt exceptions, we will
         * will be re-issue the isntruction. Store it in 72(sp)
         */
        stw   r5,  68(sp)  /* estatus */
 c000068:	d9401115 	stw	r5,68(sp)
        addi  r15, ea, -4  /* instruction that caused exception */
 c00006c:	ebffff04 	addi	r15,ea,-4
        stw   r15,  72(sp)
 c000070:	dbc01215 	stw	r15,72(sp)
#else
        /*
         * Test to see if the exception was a software exception or caused 
         * by an external interrupt, and vector accordingly.
         */
        rdctl r4, ipending
 c000074:	0009313a 	rdctl	r4,ipending
        andi  r2, r5, 1
 c000078:	2880004c 	andi	r2,r5,1
        beq   r2, zero, .Lnot_irq
 c00007c:	10000326 	beq	r2,zero,c00008c <alt_exception+0x6c>
        beq   r4, zero, .Lnot_irq
 c000080:	20000226 	beq	r4,zero,c00008c <alt_exception+0x6c>
        /*
         * Now that all necessary registers have been preserved, call 
         * alt_irq_handler() to process the interrupts.
         */

        call alt_irq_handler
 c000084:	c0000ec0 	call	c0000ec <alt_irq_handler>

        .section .exceptions.irqreturn, "xa"

        br    .Lexception_exit
 c000088:	00000306 	br	c000098 <alt_exception_unknown+0x4>
         * upon completion, so we write ea (address of instruction *after*
         * the one where the exception occured) into 72(sp). The actual
         * instruction that caused the exception is written in r2, which these
         * handlers will utilize.
         */
        stw   ea,  72(sp)  /* Don't re-issue */
 c00008c:	df401215 	stw	ea,72(sp)
        ldw   r2, -4(ea)   /* Instruction that caused exception */
 c000090:	e8bfff17 	ldw	r2,-4(ea)

0c000094 <alt_exception_unknown>:
#ifdef NIOS2_HAS_DEBUG_STUB
       /*
        *  Either tell the user now (if there is a debugger attached) or go into
        *  the debug monitor which will loop until a debugger is attached.
        */
        break
 c000094:	003da03a 	break	0
        /* 
         * Restore the saved registers, so that all general purpose registers 
         * have been restored to their state at the time the interrupt occured.
         */

        ldw   r5,  68(sp)
 c000098:	d9401117 	ldw	r5,68(sp)
        ldw   ea,  72(sp)  /* This becomes the PC once eret is executed */
 c00009c:	df401217 	ldw	ea,72(sp)
        ldw   ra,   0(sp)
 c0000a0:	dfc00017 	ldw	ra,0(sp)

        wrctl estatus, r5
 c0000a4:	2801707a 	wrctl	estatus,r5

        ldw   r1,   8(sp)
 c0000a8:	d8400217 	ldw	at,8(sp)
        ldw   r2,  12(sp)
 c0000ac:	d8800317 	ldw	r2,12(sp)
        ldw   r3,  16(sp)
 c0000b0:	d8c00417 	ldw	r3,16(sp)
        ldw   r4,  20(sp)
 c0000b4:	d9000517 	ldw	r4,20(sp)
        ldw   r5,  24(sp)
 c0000b8:	d9400617 	ldw	r5,24(sp)
        ldw   r6,  28(sp)
 c0000bc:	d9800717 	ldw	r6,28(sp)
        ldw   r7,  32(sp)
 c0000c0:	d9c00817 	ldw	r7,32(sp)

#if defined(ALT_EXCEPTION_STACK) && defined(ALT_STACK_CHECK)
        ldw   et, %gprel(alt_exception_old_stack_limit)(gp)
#endif

        ldw   r8,  36(sp)
 c0000c4:	da000917 	ldw	r8,36(sp)
        ldw   r9,  40(sp)
 c0000c8:	da400a17 	ldw	r9,40(sp)
        ldw   r10, 44(sp)
 c0000cc:	da800b17 	ldw	r10,44(sp)
        ldw   r11, 48(sp)
 c0000d0:	dac00c17 	ldw	r11,48(sp)
        ldw   r12, 52(sp)
 c0000d4:	db000d17 	ldw	r12,52(sp)
        ldw   r13, 56(sp)
 c0000d8:	db400e17 	ldw	r13,56(sp)
        ldw   r14, 60(sp)
 c0000dc:	db800f17 	ldw	r14,60(sp)
        ldw   r15, 64(sp)
 c0000e0:	dbc01017 	ldw	r15,64(sp)
        stw   et, %gprel(alt_stack_limit_value)(gp)
        stw   zero, %gprel(alt_exception_old_stack_limit)(gp)
#endif /* ALT_STACK_CHECK */
        ldw   sp,  76(sp)
#else /* ALT_EXCEPTION_STACK disabled */
        addi  sp, sp, 76
 c0000e4:	dec01304 	addi	sp,sp,76

        /*
         * Return to the interrupted instruction.
         */

        eret
 c0000e8:	ef80083a 	eret

0c0000ec <alt_irq_handler>:
 * instruction is present if the macro ALT_CI_INTERRUPT_VECTOR defined.
 */

void alt_irq_handler (void) __attribute__ ((section (".exceptions")));
void alt_irq_handler (void)
{
 c0000ec:	defff904 	addi	sp,sp,-28
 c0000f0:	dfc00615 	stw	ra,24(sp)
 c0000f4:	df000515 	stw	fp,20(sp)
 c0000f8:	df000504 	addi	fp,sp,20
  
  /*
   * Notify the operating system that we are at interrupt level.
   */ 
  
  ALT_OS_INT_ENTER();
 c0000fc:	0001883a 	nop
#ifndef NIOS2_EIC_PRESENT
static ALT_INLINE alt_u32 ALT_ALWAYS_INLINE alt_irq_pending (void)
{
  alt_u32 active;

  NIOS2_READ_IPENDING (active);
 c000100:	0005313a 	rdctl	r2,ipending
 c000104:	e0bffe15 	stw	r2,-8(fp)

  return active;
 c000108:	e0bffe17 	ldw	r2,-8(fp)
   * Consider the case where the high priority interupt is asserted during
   * the interrupt entry sequence for a lower priority interrupt to see why
   * this is the case.
   */

  active = alt_irq_pending ();
 c00010c:	e0bffb15 	stw	r2,-20(fp)

  do
  {
    i = 0;
 c000110:	e03ffd15 	stw	zero,-12(fp)
    mask = 1;
 c000114:	00800044 	movi	r2,1
 c000118:	e0bffc15 	stw	r2,-16(fp)
     * called to clear the interrupt condition.
     */

    do
    {
      if (active & mask)
 c00011c:	e0fffb17 	ldw	r3,-20(fp)
 c000120:	e0bffc17 	ldw	r2,-16(fp)
 c000124:	1884703a 	and	r2,r3,r2
 c000128:	10001426 	beq	r2,zero,c00017c <alt_irq_handler+0x90>
      { 
#ifdef ALT_ENHANCED_INTERRUPT_API_PRESENT
        alt_irq[i].handler(alt_irq[i].context); 
 c00012c:	008302f4 	movhi	r2,3083
 c000130:	10a04a04 	addi	r2,r2,-32472
 c000134:	e0fffd17 	ldw	r3,-12(fp)
 c000138:	180690fa 	slli	r3,r3,3
 c00013c:	10c5883a 	add	r2,r2,r3
 c000140:	10c00017 	ldw	r3,0(r2)
 c000144:	008302f4 	movhi	r2,3083
 c000148:	10a04a04 	addi	r2,r2,-32472
 c00014c:	e13ffd17 	ldw	r4,-12(fp)
 c000150:	200890fa 	slli	r4,r4,3
 c000154:	1105883a 	add	r2,r2,r4
 c000158:	10800104 	addi	r2,r2,4
 c00015c:	10800017 	ldw	r2,0(r2)
 c000160:	1009883a 	mov	r4,r2
 c000164:	183ee83a 	callr	r3
#else
        alt_irq[i].handler(alt_irq[i].context, i); 
#endif
        break;
 c000168:	0001883a 	nop
#ifndef NIOS2_EIC_PRESENT
static ALT_INLINE alt_u32 ALT_ALWAYS_INLINE alt_irq_pending (void)
{
  alt_u32 active;

  NIOS2_READ_IPENDING (active);
 c00016c:	0005313a 	rdctl	r2,ipending
 c000170:	e0bfff15 	stw	r2,-4(fp)

  return active;
 c000174:	e0bfff17 	ldw	r2,-4(fp)
 c000178:	00000706 	br	c000198 <alt_irq_handler+0xac>
      }
      mask <<= 1;
 c00017c:	e0bffc17 	ldw	r2,-16(fp)
 c000180:	1085883a 	add	r2,r2,r2
 c000184:	e0bffc15 	stw	r2,-16(fp)
      i++;
 c000188:	e0bffd17 	ldw	r2,-12(fp)
 c00018c:	10800044 	addi	r2,r2,1
 c000190:	e0bffd15 	stw	r2,-12(fp)

    } while (1);
 c000194:	003fe106 	br	c00011c <__alt_data_end+0xfc00011c>

    active = alt_irq_pending ();
 c000198:	e0bffb15 	stw	r2,-20(fp)
    
  } while (active);
 c00019c:	e0bffb17 	ldw	r2,-20(fp)
 c0001a0:	103fdb1e 	bne	r2,zero,c000110 <__alt_data_end+0xfc000110>

  /*
   * Notify the operating system that interrupt processing is complete.
   */ 

  ALT_OS_INT_EXIT();
 c0001a4:	0001883a 	nop
}
 c0001a8:	e037883a 	mov	sp,fp
 c0001ac:	dfc00117 	ldw	ra,4(sp)
 c0001b0:	df000017 	ldw	fp,0(sp)
 c0001b4:	dec00204 	addi	sp,sp,8
 c0001b8:	f800283a 	ret

Disassembly of section .text:

0c0001bc <_start>:

    /*
     * Now that the caches are initialized, set up the stack pointer and global pointer.
     * The values provided by the linker are assumed to be correctly aligned.
     */
    movhi sp, %hi(__alt_stack_pointer)
 c0001bc:	06c40034 	movhi	sp,4096
    ori sp, sp, %lo(__alt_stack_pointer)
 c0001c0:	dec00014 	ori	sp,sp,0
    movhi gp, %hi(_gp)
 c0001c4:	068300b4 	movhi	gp,3074
    ori gp, gp, %lo(_gp)
 c0001c8:	d6b06f14 	ori	gp,gp,49596
 */
#ifndef ALT_SIM_OPTIMIZE
    /* Log that the BSS is about to be cleared. */
    ALT_LOG_PUTS(alt_log_msg_bss)

    movhi r2, %hi(__bss_start)
 c0001cc:	008300b4 	movhi	r2,3074
    ori r2, r2, %lo(__bss_start)
 c0001d0:	10975114 	ori	r2,r2,23876

    movhi r3, %hi(__bss_end)
 c0001d4:	00c302b4 	movhi	r3,3082
    ori r3, r3, %lo(__bss_end)
 c0001d8:	18e08a14 	ori	r3,r3,33320

    beq r2, r3, 1f
 c0001dc:	10c00326 	beq	r2,r3,c0001ec <_start+0x30>

0:
    stw zero, (r2)
 c0001e0:	10000015 	stw	zero,0(r2)
    addi r2, r2, 4
 c0001e4:	10800104 	addi	r2,r2,4
    bltu r2, r3, 0b
 c0001e8:	10fffd36 	bltu	r2,r3,c0001e0 <__alt_data_end+0xfc0001e0>
     * section aren't defined until alt_load() has been called).
     */
    mov   et, zero
#endif

    call alt_load
 c0001ec:	c0151640 	call	c015164 <alt_load>

    /* Log that alt_main is about to be called. */
    ALT_LOG_PUTS(alt_log_msg_alt_main)

    /* Call the C entry point. It should never return. */
    call alt_main
 c0001f0:	c0153080 	call	c015308 <alt_main>

0c0001f4 <alt_after_alt_main>:

    /* Wait in infinite loop in case alt_main does return. */
alt_after_alt_main:
    br alt_after_alt_main
 c0001f4:	003fff06 	br	c0001f4 <__alt_data_end+0xfc0001f4>

0c0001f8 <send_command>:

//===================================================================
// Private Function Definitions
//===================================================================
void send_command(uint8_t cmd, uint8_t *command_args, uint8_t args_length)
{
 c0001f8:	defffb04 	addi	sp,sp,-20
 c0001fc:	dfc00415 	stw	ra,16(sp)
 c000200:	df000315 	stw	fp,12(sp)
 c000204:	df000304 	addi	fp,sp,12
 c000208:	2007883a 	mov	r3,r4
 c00020c:	e17ffe15 	stw	r5,-8(fp)
 c000210:	3005883a 	mov	r2,r6
 c000214:	e0fffd05 	stb	r3,-12(fp)
 c000218:	e0bfff05 	stb	r2,-4(fp)
    // The format of every message is :
    // [SYNC BYTE | SERIAL ID BYTE | COMMAND_BYTE | COMMAND_ARG_BYTES]
    serial_write(CAMERA, COMMAND_HEADER, 2);
 c00021c:	01210034 	movhi	r4,33792
 c000220:	21008404 	addi	r4,r4,528
 c000224:	d1600004 	addi	r5,gp,-32768
 c000228:	01800084 	movi	r6,2
 c00022c:	c0078b40 	call	c0078b4 <serial_write>
    serial_write(CAMERA, &cmd, 1);
 c000230:	01210034 	movhi	r4,33792
 c000234:	21008404 	addi	r4,r4,528
 c000238:	e17ffd04 	addi	r5,fp,-12
 c00023c:	01800044 	movi	r6,1
 c000240:	c0078b40 	call	c0078b4 <serial_write>
    serial_write(CAMERA, command_args, args_length);
 c000244:	e0bfff03 	ldbu	r2,-4(fp)
 c000248:	01210034 	movhi	r4,33792
 c00024c:	21008404 	addi	r4,r4,528
 c000250:	e17ffe17 	ldw	r5,-8(fp)
 c000254:	100d883a 	mov	r6,r2
 c000258:	c0078b40 	call	c0078b4 <serial_write>
}
 c00025c:	e037883a 	mov	sp,fp
 c000260:	dfc00117 	ldw	ra,4(sp)
 c000264:	df000017 	ldw	fp,0(sp)
 c000268:	dec00204 	addi	sp,sp,8
 c00026c:	f800283a 	ret

0c000270 <read_response>:
 *             bytes.
 * \return This function returns the amount of bytes that it managed to read
 *         from the serial interface before the timeout.
 */
uint8_t read_response(uint8_t numbytes, uint8_t timeout)
{
 c000270:	defffc04 	addi	sp,sp,-16
 c000274:	dfc00315 	stw	ra,12(sp)
 c000278:	df000215 	stw	fp,8(sp)
 c00027c:	df000204 	addi	fp,sp,8
 c000280:	2007883a 	mov	r3,r4
 c000284:	2805883a 	mov	r2,r5
 c000288:	e0fffe05 	stb	r3,-8(fp)
 c00028c:	e0bfff05 	stb	r2,-4(fp)
    // Ensure that we don't overrun the global recv buffer.
    assert(numbytes <= CAMERA_BUFFER_SIZE);
 c000290:	e0bffe03 	ldbu	r2,-8(fp)
 c000294:	10801970 	cmpltui	r2,r2,101
 c000298:	1000081e 	bne	r2,zero,c0002bc <read_response+0x4c>
 c00029c:	01030074 	movhi	r4,3073
 c0002a0:	211edf04 	addi	r4,r4,31612
 c0002a4:	01401344 	movi	r5,77
 c0002a8:	01830074 	movhi	r6,3073
 c0002ac:	319eea04 	addi	r6,r6,31656
 c0002b0:	01c30074 	movhi	r7,3073
 c0002b4:	39dee204 	addi	r7,r7,31624
 c0002b8:	c008cd80 	call	c008cd8 <__assert_func>

    buffer_length = serial_read_timeout(CAMERA, camera_buffer,
 c0002bc:	e0bffe03 	ldbu	r2,-8(fp)
 c0002c0:	01210034 	movhi	r4,33792
 c0002c4:	21008404 	addi	r4,r4,528
 c0002c8:	014302b4 	movhi	r5,3082
 c0002cc:	29582004 	addi	r5,r5,24704
 c0002d0:	100d883a 	mov	r6,r2
 c0002d4:	01c00074 	movhi	r7,1
 c0002d8:	39c45c04 	addi	r7,r7,4464
 c0002dc:	c0079a40 	call	c0079a4 <serial_read_timeout>
 c0002e0:	d0a6e285 	stb	r2,-25718(gp)
                                        numbytes, STD_WAIT);
//    print_byte_array(camera_buffer, buffer_length);
    return buffer_length;
 c0002e4:	d0a6e283 	ldbu	r2,-25718(gp)
}
 c0002e8:	e037883a 	mov	sp,fp
 c0002ec:	dfc00117 	ldw	ra,4(sp)
 c0002f0:	df000017 	ldw	fp,0(sp)
 c0002f4:	dec00204 	addi	sp,sp,8
 c0002f8:	f800283a 	ret

0c0002fc <verify_response>:
 * \param [in] cmd, The command byte sent.
 * \return This function returns 1 if the response from the device is well
 *         formed, else it returns 0.
 */
int verify_response(uint8_t cmd)
{
 c0002fc:	defffe04 	addi	sp,sp,-8
 c000300:	df000115 	stw	fp,4(sp)
 c000304:	df000104 	addi	fp,sp,4
 c000308:	2005883a 	mov	r2,r4
 c00030c:	e0bfff05 	stb	r2,-4(fp)
    // A well formed message consists of the following:
    // [RESPONSE_BYTE | SERIAL_ID | cmd | 0x00]
    if ((camera_buffer[0] != RESPONSE_BYTE) ||
 c000310:	008302b4 	movhi	r2,3082
 c000314:	10982004 	addi	r2,r2,24704
 c000318:	10800003 	ldbu	r2,0(r2)
 c00031c:	10803fcc 	andi	r2,r2,255
 c000320:	10801d98 	cmpnei	r2,r2,118
 c000324:	1000101e 	bne	r2,zero,c000368 <verify_response+0x6c>
        (camera_buffer[1] != SERIAL_ID) ||
 c000328:	008302b4 	movhi	r2,3082
 c00032c:	10982004 	addi	r2,r2,24704
 c000330:	10800043 	ldbu	r2,1(r2)
 */
int verify_response(uint8_t cmd)
{
    // A well formed message consists of the following:
    // [RESPONSE_BYTE | SERIAL_ID | cmd | 0x00]
    if ((camera_buffer[0] != RESPONSE_BYTE) ||
 c000334:	10803fcc 	andi	r2,r2,255
 c000338:	10000b1e 	bne	r2,zero,c000368 <verify_response+0x6c>
        (camera_buffer[1] != SERIAL_ID) ||
        (camera_buffer[2] != cmd) ||
 c00033c:	008302b4 	movhi	r2,3082
 c000340:	10982004 	addi	r2,r2,24704
 c000344:	10800083 	ldbu	r2,2(r2)
int verify_response(uint8_t cmd)
{
    // A well formed message consists of the following:
    // [RESPONSE_BYTE | SERIAL_ID | cmd | 0x00]
    if ((camera_buffer[0] != RESPONSE_BYTE) ||
        (camera_buffer[1] != SERIAL_ID) ||
 c000348:	10c03fcc 	andi	r3,r2,255
 c00034c:	e0bfff03 	ldbu	r2,-4(fp)
 c000350:	1880051e 	bne	r3,r2,c000368 <verify_response+0x6c>
        (camera_buffer[2] != cmd) ||
        (camera_buffer[3] != 0x00))
 c000354:	008302b4 	movhi	r2,3082
 c000358:	10982004 	addi	r2,r2,24704
 c00035c:	108000c3 	ldbu	r2,3(r2)
{
    // A well formed message consists of the following:
    // [RESPONSE_BYTE | SERIAL_ID | cmd | 0x00]
    if ((camera_buffer[0] != RESPONSE_BYTE) ||
        (camera_buffer[1] != SERIAL_ID) ||
        (camera_buffer[2] != cmd) ||
 c000360:	10803fcc 	andi	r2,r2,255
 c000364:	10000226 	beq	r2,zero,c000370 <verify_response+0x74>
        (camera_buffer[3] != 0x00))
            return 0;
 c000368:	0005883a 	mov	r2,zero
 c00036c:	00000106 	br	c000374 <verify_response+0x78>

    return 1;
 c000370:	00800044 	movi	r2,1
}
 c000374:	e037883a 	mov	sp,fp
 c000378:	df000017 	ldw	fp,0(sp)
 c00037c:	dec00104 	addi	sp,sp,4
 c000380:	f800283a 	ret

0c000384 <run_command>:
 * \return This function returns 1 if the response from the device is well
 *         formed, else it returns 0.
 */
int run_command(uint8_t cmd, uint8_t *command_args, uint8_t command_arg_length,
                uint8_t response_length, int flush_buffer)
{
 c000384:	defff904 	addi	sp,sp,-28
 c000388:	dfc00615 	stw	ra,24(sp)
 c00038c:	df000515 	stw	fp,20(sp)
 c000390:	df000504 	addi	fp,sp,20
 c000394:	e17ffd15 	stw	r5,-12(fp)
 c000398:	3007883a 	mov	r3,r6
 c00039c:	3805883a 	mov	r2,r7
 c0003a0:	e13ffc05 	stb	r4,-16(fp)
 c0003a4:	e0fffe05 	stb	r3,-8(fp)
 c0003a8:	e0bfff05 	stb	r2,-4(fp)
    if (flush_buffer)
 c0003ac:	e0800217 	ldw	r2,8(fp)
 c0003b0:	10000326 	beq	r2,zero,c0003c0 <run_command+0x3c>
        read_response(CAMERA_BUFFER_SIZE, 10);
 c0003b4:	01001904 	movi	r4,100
 c0003b8:	01400284 	movi	r5,10
 c0003bc:	c0002700 	call	c000270 <read_response>

    send_command(cmd, command_args, command_arg_length);
 c0003c0:	e0fffc03 	ldbu	r3,-16(fp)
 c0003c4:	e0bffe03 	ldbu	r2,-8(fp)
 c0003c8:	1809883a 	mov	r4,r3
 c0003cc:	e17ffd17 	ldw	r5,-12(fp)
 c0003d0:	100d883a 	mov	r6,r2
 c0003d4:	c0001f80 	call	c0001f8 <send_command>
    uint8_t received_response_length = read_response(response_length, STD_WAIT);
 c0003d8:	e0bfff03 	ldbu	r2,-4(fp)
 c0003dc:	1009883a 	mov	r4,r2
 c0003e0:	01401c04 	movi	r5,112
 c0003e4:	c0002700 	call	c000270 <read_response>
 c0003e8:	e0bffb05 	stb	r2,-20(fp)
    if (received_response_length != response_length)
 c0003ec:	e0fffb03 	ldbu	r3,-20(fp)
 c0003f0:	e0bfff03 	ldbu	r2,-4(fp)
 c0003f4:	18800226 	beq	r3,r2,c000400 <run_command+0x7c>
        return 0;
 c0003f8:	0005883a 	mov	r2,zero
 c0003fc:	00000706 	br	c00041c <run_command+0x98>

    if (!verify_response(cmd))
 c000400:	e0bffc03 	ldbu	r2,-16(fp)
 c000404:	1009883a 	mov	r4,r2
 c000408:	c0002fc0 	call	c0002fc <verify_response>
 c00040c:	1000021e 	bne	r2,zero,c000418 <run_command+0x94>
        return 0;
 c000410:	0005883a 	mov	r2,zero
 c000414:	00000106 	br	c00041c <run_command+0x98>

    return 1;
 c000418:	00800044 	movi	r2,1

}
 c00041c:	e037883a 	mov	sp,fp
 c000420:	dfc00117 	ldw	ra,4(sp)
 c000424:	df000017 	ldw	fp,0(sp)
 c000428:	dec00204 	addi	sp,sp,8
 c00042c:	f800283a 	ret

0c000430 <camera_frame_buff_ctrl>:

int camera_frame_buff_ctrl(uint8_t command)
{
 c000430:	defffb04 	addi	sp,sp,-20
 c000434:	dfc00415 	stw	ra,16(sp)
 c000438:	df000315 	stw	fp,12(sp)
 c00043c:	df000304 	addi	fp,sp,12
 c000440:	2005883a 	mov	r2,r4
 c000444:	e0bfff05 	stb	r2,-4(fp)
	uint8_t args[] = {0x1, command};
 c000448:	00800044 	movi	r2,1
 c00044c:	e0bffe05 	stb	r2,-8(fp)
 c000450:	e0bfff03 	ldbu	r2,-4(fp)
 c000454:	e0bffe45 	stb	r2,-7(fp)
	return run_command(COMMAND_FBUF_CTRL, args, 2, 5, 1);
 c000458:	00800044 	movi	r2,1
 c00045c:	d8800015 	stw	r2,0(sp)
 c000460:	01000d84 	movi	r4,54
 c000464:	e17ffe04 	addi	r5,fp,-8
 c000468:	01800084 	movi	r6,2
 c00046c:	01c00144 	movi	r7,5
 c000470:	c0003840 	call	c000384 <run_command>
}
 c000474:	e037883a 	mov	sp,fp
 c000478:	dfc00117 	ldw	ra,4(sp)
 c00047c:	df000017 	ldw	fp,0(sp)
 c000480:	dec00204 	addi	sp,sp,8
 c000484:	f800283a 	ret

0c000488 <cam_init>:

//===================================================================
// Public Function Definitions
//===================================================================
void cam_init(void)
{
 c000488:	defffe04 	addi	sp,sp,-8
 c00048c:	dfc00115 	stw	ra,4(sp)
 c000490:	df000015 	stw	fp,0(sp)
 c000494:	d839883a 	mov	fp,sp
	buffer_length = 0;
 c000498:	d026e285 	stb	zero,-25718(gp)
	frame_ptr = 0;
 c00049c:	d026e20d 	sth	zero,-25720(gp)

    init_serial(CAMERA);
 c0004a0:	01210034 	movhi	r4,33792
 c0004a4:	21008404 	addi	r4,r4,528
 c0004a8:	c0077200 	call	c007720 <init_serial>
    memset(camera_buffer, 0, CAMERA_BUFFER_SIZE +1);
 c0004ac:	010302b4 	movhi	r4,3082
 c0004b0:	21182004 	addi	r4,r4,24704
 c0004b4:	000b883a 	mov	r5,zero
 c0004b8:	01801944 	movi	r6,101
 c0004bc:	c0096b40 	call	c0096b4 <memset>
}
 c0004c0:	e037883a 	mov	sp,fp
 c0004c4:	dfc00117 	ldw	ra,4(sp)
 c0004c8:	df000017 	ldw	fp,0(sp)
 c0004cc:	dec00204 	addi	sp,sp,8
 c0004d0:	f800283a 	ret

0c0004d4 <get_image_resolution>:

resolution get_image_resolution()
{
 c0004d4:	defffa04 	addi	sp,sp,-24
 c0004d8:	dfc00515 	stw	ra,20(sp)
 c0004dc:	df000415 	stw	fp,16(sp)
 c0004e0:	df000404 	addi	fp,sp,16
    uint8_t command_arguments[] = {0x04, 0x04, 0x01, 0x00, 0x19};
 c0004e4:	00800104 	movi	r2,4
 c0004e8:	e0bffe05 	stb	r2,-8(fp)
 c0004ec:	00800104 	movi	r2,4
 c0004f0:	e0bffe45 	stb	r2,-7(fp)
 c0004f4:	00800044 	movi	r2,1
 c0004f8:	e0bffe85 	stb	r2,-6(fp)
 c0004fc:	e03ffec5 	stb	zero,-5(fp)
 c000500:	00800644 	movi	r2,25
 c000504:	e0bfff05 	stb	r2,-4(fp)
    int command_result = run_command(COMMAND_READ_DATA, command_arguments,
 c000508:	e0fffe04 	addi	r3,fp,-8
 c00050c:	00800044 	movi	r2,1
 c000510:	d8800015 	stw	r2,0(sp)
 c000514:	01000c04 	movi	r4,48
 c000518:	180b883a 	mov	r5,r3
 c00051c:	01800144 	movi	r6,5
 c000520:	01c00184 	movi	r7,6
 c000524:	c0003840 	call	c000384 <run_command>
 c000528:	e0bffd15 	stw	r2,-12(fp)
                                     0x05, 0x06, 1);
    if (!command_result)
 c00052c:	e0bffd17 	ldw	r2,-12(fp)
 c000530:	1000021e 	bne	r2,zero,c00053c <get_image_resolution+0x68>
        return 0xFF;
 c000534:	00803fc4 	movi	r2,255
 c000538:	00000406 	br	c00054c <get_image_resolution+0x78>

    return camera_buffer[5];
 c00053c:	008302b4 	movhi	r2,3082
 c000540:	10982004 	addi	r2,r2,24704
 c000544:	10800143 	ldbu	r2,5(r2)
 c000548:	10803fcc 	andi	r2,r2,255
}
 c00054c:	e037883a 	mov	sp,fp
 c000550:	dfc00117 	ldw	ra,4(sp)
 c000554:	df000017 	ldw	fp,0(sp)
 c000558:	dec00204 	addi	sp,sp,8
 c00055c:	f800283a 	ret

0c000560 <set_image_resolution>:

int set_image_resolution(resolution new_resolution)
{
 c000560:	defff904 	addi	sp,sp,-28
 c000564:	dfc00615 	stw	ra,24(sp)
 c000568:	df000515 	stw	fp,20(sp)
 c00056c:	df000504 	addi	fp,sp,20
 c000570:	e13fff15 	stw	r4,-4(fp)
    uint8_t command_arguments[] = {0x05, 0x04, 0x01, 0x00, 0x19,
 c000574:	00800144 	movi	r2,5
 c000578:	e0bffd05 	stb	r2,-12(fp)
 c00057c:	00800104 	movi	r2,4
 c000580:	e0bffd45 	stb	r2,-11(fp)
 c000584:	00800044 	movi	r2,1
 c000588:	e0bffd85 	stb	r2,-10(fp)
 c00058c:	e03ffdc5 	stb	zero,-9(fp)
 c000590:	00800644 	movi	r2,25
 c000594:	e0bffe05 	stb	r2,-8(fp)
 c000598:	e0bfff17 	ldw	r2,-4(fp)
 c00059c:	e0bffe45 	stb	r2,-7(fp)
                                   new_resolution};
    int command_response = run_command(COMMAND_WRITE_DATA, command_arguments,
 c0005a0:	e0fffd04 	addi	r3,fp,-12
 c0005a4:	00800044 	movi	r2,1
 c0005a8:	d8800015 	stw	r2,0(sp)
 c0005ac:	01000c44 	movi	r4,49
 c0005b0:	180b883a 	mov	r5,r3
 c0005b4:	01800184 	movi	r6,6
 c0005b8:	01c00144 	movi	r7,5
 c0005bc:	c0003840 	call	c000384 <run_command>
 c0005c0:	e0bffc15 	stw	r2,-16(fp)
                                       0x06, 0x05, 1);
    return command_response;
 c0005c4:	e0bffc17 	ldw	r2,-16(fp)
}
 c0005c8:	e037883a 	mov	sp,fp
 c0005cc:	dfc00117 	ldw	ra,4(sp)
 c0005d0:	df000017 	ldw	fp,0(sp)
 c0005d4:	dec00204 	addi	sp,sp,8
 c0005d8:	f800283a 	ret

0c0005dc <take_picture>:

int take_picture(void)
{
 c0005dc:	defffe04 	addi	sp,sp,-8
 c0005e0:	dfc00115 	stw	ra,4(sp)
 c0005e4:	df000015 	stw	fp,0(sp)
 c0005e8:	d839883a 	mov	fp,sp
	frame_ptr = 0;
 c0005ec:	d026e20d 	sth	zero,-25720(gp)
	return camera_frame_buff_ctrl(COMMAND_STOPCURRENTFRAME);
 c0005f0:	0009883a 	mov	r4,zero
 c0005f4:	c0004300 	call	c000430 <camera_frame_buff_ctrl>
}
 c0005f8:	e037883a 	mov	sp,fp
 c0005fc:	dfc00117 	ldw	ra,4(sp)
 c000600:	df000017 	ldw	fp,0(sp)
 c000604:	dec00204 	addi	sp,sp,8
 c000608:	f800283a 	ret

0c00060c <resume_picture>:

int resume_picture(void)
{
 c00060c:	defffe04 	addi	sp,sp,-8
 c000610:	dfc00115 	stw	ra,4(sp)
 c000614:	df000015 	stw	fp,0(sp)
 c000618:	d839883a 	mov	fp,sp
    frame_ptr = 0;
 c00061c:	d026e20d 	sth	zero,-25720(gp)
    return camera_frame_buff_ctrl(COMMAND_RESUMEFRAME);
 c000620:	010000c4 	movi	r4,3
 c000624:	c0004300 	call	c000430 <camera_frame_buff_ctrl>
}
 c000628:	e037883a 	mov	sp,fp
 c00062c:	dfc00117 	ldw	ra,4(sp)
 c000630:	df000017 	ldw	fp,0(sp)
 c000634:	dec00204 	addi	sp,sp,8
 c000638:	f800283a 	ret

0c00063c <frame_length>:
uint32_t frame_length(void)
{
 c00063c:	defffa04 	addi	sp,sp,-24
 c000640:	dfc00515 	stw	ra,20(sp)
 c000644:	df000415 	stw	fp,16(sp)
 c000648:	df000404 	addi	fp,sp,16
	uint8_t args[] = {0x01, 0x00};
 c00064c:	00800044 	movi	r2,1
 c000650:	e0bfff05 	stb	r2,-4(fp)
 c000654:	e03fff45 	stb	zero,-3(fp)
	int command_response = run_command(COMMAND_GET_FBUF_LEN, args, 2, 9, 1);
 c000658:	e0ffff04 	addi	r3,fp,-4
 c00065c:	00800044 	movi	r2,1
 c000660:	d8800015 	stw	r2,0(sp)
 c000664:	01000d04 	movi	r4,52
 c000668:	180b883a 	mov	r5,r3
 c00066c:	01800084 	movi	r6,2
 c000670:	01c00244 	movi	r7,9
 c000674:	c0003840 	call	c000384 <run_command>
 c000678:	e0bffd15 	stw	r2,-12(fp)

	if(!command_response)
 c00067c:	e0bffd17 	ldw	r2,-12(fp)
 c000680:	1000021e 	bne	r2,zero,c00068c <frame_length+0x50>
		return 0;
 c000684:	0005883a 	mov	r2,zero
 c000688:	00002406 	br	c00071c <frame_length+0xe0>

	uint32_t len;
	len = camera_buffer[5];
 c00068c:	008302b4 	movhi	r2,3082
 c000690:	10982004 	addi	r2,r2,24704
 c000694:	10800143 	ldbu	r2,5(r2)
 c000698:	10803fcc 	andi	r2,r2,255
 c00069c:	e0bffe15 	stw	r2,-8(fp)
	len <<= 8;
 c0006a0:	e0bffe17 	ldw	r2,-8(fp)
 c0006a4:	1004923a 	slli	r2,r2,8
 c0006a8:	e0bffe15 	stw	r2,-8(fp)
	len |= camera_buffer[6];
 c0006ac:	008302b4 	movhi	r2,3082
 c0006b0:	10982004 	addi	r2,r2,24704
 c0006b4:	10800183 	ldbu	r2,6(r2)
 c0006b8:	10803fcc 	andi	r2,r2,255
 c0006bc:	e0fffe17 	ldw	r3,-8(fp)
 c0006c0:	1884b03a 	or	r2,r3,r2
 c0006c4:	e0bffe15 	stw	r2,-8(fp)
	len <<= 8;
 c0006c8:	e0bffe17 	ldw	r2,-8(fp)
 c0006cc:	1004923a 	slli	r2,r2,8
 c0006d0:	e0bffe15 	stw	r2,-8(fp)
	len |= camera_buffer[7];
 c0006d4:	008302b4 	movhi	r2,3082
 c0006d8:	10982004 	addi	r2,r2,24704
 c0006dc:	108001c3 	ldbu	r2,7(r2)
 c0006e0:	10803fcc 	andi	r2,r2,255
 c0006e4:	e0fffe17 	ldw	r3,-8(fp)
 c0006e8:	1884b03a 	or	r2,r3,r2
 c0006ec:	e0bffe15 	stw	r2,-8(fp)
	len <<= 8;
 c0006f0:	e0bffe17 	ldw	r2,-8(fp)
 c0006f4:	1004923a 	slli	r2,r2,8
 c0006f8:	e0bffe15 	stw	r2,-8(fp)
	len |= camera_buffer[8];
 c0006fc:	008302b4 	movhi	r2,3082
 c000700:	10982004 	addi	r2,r2,24704
 c000704:	10800203 	ldbu	r2,8(r2)
 c000708:	10803fcc 	andi	r2,r2,255
 c00070c:	e0fffe17 	ldw	r3,-8(fp)
 c000710:	1884b03a 	or	r2,r3,r2
 c000714:	e0bffe15 	stw	r2,-8(fp)

	return len;
 c000718:	e0bffe17 	ldw	r2,-8(fp)
}
 c00071c:	e037883a 	mov	sp,fp
 c000720:	dfc00117 	ldw	ra,4(sp)
 c000724:	df000017 	ldw	fp,0(sp)
 c000728:	dec00204 	addi	sp,sp,8
 c00072c:	f800283a 	ret

0c000730 <camera_reset>:

int camera_reset(void)
{
 c000730:	defffc04 	addi	sp,sp,-16
 c000734:	dfc00315 	stw	ra,12(sp)
 c000738:	df000215 	stw	fp,8(sp)
 c00073c:	df000204 	addi	fp,sp,8
  uint8_t args[] = {0x0};
 c000740:	e03fff05 	stb	zero,-4(fp)

  return run_command(COMMAND_RESET, args, 1, 5, 1);
 c000744:	00800044 	movi	r2,1
 c000748:	d8800015 	stw	r2,0(sp)
 c00074c:	01000984 	movi	r4,38
 c000750:	e17fff04 	addi	r5,fp,-4
 c000754:	01800044 	movi	r6,1
 c000758:	01c00144 	movi	r7,5
 c00075c:	c0003840 	call	c000384 <run_command>
}
 c000760:	e037883a 	mov	sp,fp
 c000764:	dfc00117 	ldw	ra,4(sp)
 c000768:	df000017 	ldw	fp,0(sp)
 c00076c:	dec00204 	addi	sp,sp,8
 c000770:	f800283a 	ret

0c000774 <read_picture>:



uint8_t *read_picture(uint8_t n)
{
 c000774:	defff704 	addi	sp,sp,-36
 c000778:	dfc00815 	stw	ra,32(sp)
 c00077c:	df000715 	stw	fp,28(sp)
 c000780:	df000704 	addi	fp,sp,28
 c000784:	2005883a 	mov	r2,r4
 c000788:	e0bfff05 	stb	r2,-4(fp)
    uint8_t args[] = {0x0C, 0x0, 0x0A, 0, 0, frame_ptr >> 8, frame_ptr & 0xFF,
 c00078c:	00800304 	movi	r2,12
 c000790:	e0bffb05 	stb	r2,-20(fp)
 c000794:	e03ffb45 	stb	zero,-19(fp)
 c000798:	00800284 	movi	r2,10
 c00079c:	e0bffb85 	stb	r2,-18(fp)
 c0007a0:	e03ffbc5 	stb	zero,-17(fp)
 c0007a4:	e03ffc05 	stb	zero,-16(fp)
 c0007a8:	d0a6e20b 	ldhu	r2,-25720(gp)
 c0007ac:	10bfffcc 	andi	r2,r2,65535
 c0007b0:	1004d23a 	srli	r2,r2,8
 c0007b4:	e0bffc45 	stb	r2,-15(fp)
 c0007b8:	d0a6e20b 	ldhu	r2,-25720(gp)
 c0007bc:	e0bffc85 	stb	r2,-14(fp)
 c0007c0:	e03ffcc5 	stb	zero,-13(fp)
 c0007c4:	e03ffd05 	stb	zero,-12(fp)
 c0007c8:	e03ffd45 	stb	zero,-11(fp)
 c0007cc:	e0bfff03 	ldbu	r2,-4(fp)
 c0007d0:	e0bffd85 	stb	r2,-10(fp)
 c0007d4:	e03ffdc5 	stb	zero,-9(fp)
 c0007d8:	00800284 	movi	r2,10
 c0007dc:	e0bffe05 	stb	r2,-8(fp)
            0, 0, 0, n, CAMERADELAY >> 8, CAMERADELAY & 0xFF};

    int response = run_command(COMMAND_READ_FBUF, args, sizeof(args), 5, 0);
 c0007e0:	e0bffb04 	addi	r2,fp,-20
 c0007e4:	d8000015 	stw	zero,0(sp)
 c0007e8:	01000c84 	movi	r4,50
 c0007ec:	100b883a 	mov	r5,r2
 c0007f0:	01800344 	movi	r6,13
 c0007f4:	01c00144 	movi	r7,5
 c0007f8:	c0003840 	call	c000384 <run_command>
 c0007fc:	e0bffa15 	stw	r2,-24(fp)

    if(!response)
 c000800:	e0bffa17 	ldw	r2,-24(fp)
 c000804:	1000021e 	bne	r2,zero,c000810 <read_picture+0x9c>
        return 0;
 c000808:	0005883a 	mov	r2,zero
 c00080c:	00001206 	br	c000858 <read_picture+0xe4>

    response = read_response(n+5, CAMERADELAY);
 c000810:	e0bfff03 	ldbu	r2,-4(fp)
 c000814:	10800144 	addi	r2,r2,5
 c000818:	10803fcc 	andi	r2,r2,255
 c00081c:	1009883a 	mov	r4,r2
 c000820:	01400284 	movi	r5,10
 c000824:	c0002700 	call	c000270 <read_response>
 c000828:	10803fcc 	andi	r2,r2,255
 c00082c:	e0bffa15 	stw	r2,-24(fp)
    //printf("THIS IS TILTING ME by requesting: %d, and getting %d\n", n+5, response);
    if(!response)
 c000830:	e0bffa17 	ldw	r2,-24(fp)
 c000834:	1000021e 	bne	r2,zero,c000840 <read_picture+0xcc>
        return 0;
 c000838:	0005883a 	mov	r2,zero
 c00083c:	00000606 	br	c000858 <read_picture+0xe4>

    frame_ptr += n;
 c000840:	e0ffff03 	ldbu	r3,-4(fp)
 c000844:	d0a6e20b 	ldhu	r2,-25720(gp)
 c000848:	1885883a 	add	r2,r3,r2
 c00084c:	d0a6e20d 	sth	r2,-25720(gp)

    return camera_buffer;
 c000850:	008302b4 	movhi	r2,3082
 c000854:	10982004 	addi	r2,r2,24704
}
 c000858:	e037883a 	mov	sp,fp
 c00085c:	dfc00117 	ldw	ra,4(sp)
 c000860:	df000017 	ldw	fp,0(sp)
 c000864:	dec00204 	addi	sp,sp,8
 c000868:	f800283a 	ret

0c00086c <read_picture_to_ptr>:

read_picture_to_ptr(uint8_t * jpeg_buffer, uint8_t n)
{
 c00086c:	defff504 	addi	sp,sp,-44
 c000870:	dfc00a15 	stw	ra,40(sp)
 c000874:	df000915 	stw	fp,36(sp)
 c000878:	df000904 	addi	fp,sp,36
 c00087c:	e13ffe15 	stw	r4,-8(fp)
 c000880:	2805883a 	mov	r2,r5
 c000884:	e0bfff05 	stb	r2,-4(fp)
    uint8_t args[] = {0x0C, 0x0, 0x0A, 0, 0, frame_ptr >> 8, frame_ptr & 0xFF,
 c000888:	00800304 	movi	r2,12
 c00088c:	e0bffa05 	stb	r2,-24(fp)
 c000890:	e03ffa45 	stb	zero,-23(fp)
 c000894:	00800284 	movi	r2,10
 c000898:	e0bffa85 	stb	r2,-22(fp)
 c00089c:	e03ffac5 	stb	zero,-21(fp)
 c0008a0:	e03ffb05 	stb	zero,-20(fp)
 c0008a4:	d0a6e20b 	ldhu	r2,-25720(gp)
 c0008a8:	10bfffcc 	andi	r2,r2,65535
 c0008ac:	1004d23a 	srli	r2,r2,8
 c0008b0:	e0bffb45 	stb	r2,-19(fp)
 c0008b4:	d0a6e20b 	ldhu	r2,-25720(gp)
 c0008b8:	e0bffb85 	stb	r2,-18(fp)
 c0008bc:	e03ffbc5 	stb	zero,-17(fp)
 c0008c0:	e03ffc05 	stb	zero,-16(fp)
 c0008c4:	e03ffc45 	stb	zero,-15(fp)
 c0008c8:	e0bfff03 	ldbu	r2,-4(fp)
 c0008cc:	e0bffc85 	stb	r2,-14(fp)
 c0008d0:	e03ffcc5 	stb	zero,-13(fp)
 c0008d4:	00800284 	movi	r2,10
 c0008d8:	e0bffd05 	stb	r2,-12(fp)
            0, 0, 0, n, CAMERADELAY >> 8, CAMERADELAY & 0xFF};

    int response = run_command(COMMAND_READ_FBUF, args, sizeof(args), 5, 0);
 c0008dc:	e0bffa04 	addi	r2,fp,-24
 c0008e0:	d8000015 	stw	zero,0(sp)
 c0008e4:	01000c84 	movi	r4,50
 c0008e8:	100b883a 	mov	r5,r2
 c0008ec:	01800344 	movi	r6,13
 c0008f0:	01c00144 	movi	r7,5
 c0008f4:	c0003840 	call	c000384 <run_command>
 c0008f8:	e0bff815 	stw	r2,-32(fp)

    if(!response)
 c0008fc:	e0bff817 	ldw	r2,-32(fp)
 c000900:	1000021e 	bne	r2,zero,c00090c <read_picture_to_ptr+0xa0>
        return 0;
 c000904:	0005883a 	mov	r2,zero
 c000908:	00001506 	br	c000960 <read_picture_to_ptr+0xf4>

    int buffer_length = serial_read_timeout(CAMERA, jpeg_buffer + frame_ptr,
 c00090c:	d0a6e20b 	ldhu	r2,-25720(gp)
 c000910:	10bfffcc 	andi	r2,r2,65535
 c000914:	e0fffe17 	ldw	r3,-8(fp)
 c000918:	1887883a 	add	r3,r3,r2
            n+5, 1000);
 c00091c:	e0bfff03 	ldbu	r2,-4(fp)
 c000920:	10800144 	addi	r2,r2,5
    int response = run_command(COMMAND_READ_FBUF, args, sizeof(args), 5, 0);

    if(!response)
        return 0;

    int buffer_length = serial_read_timeout(CAMERA, jpeg_buffer + frame_ptr,
 c000924:	01210034 	movhi	r4,33792
 c000928:	21008404 	addi	r4,r4,528
 c00092c:	180b883a 	mov	r5,r3
 c000930:	100d883a 	mov	r6,r2
 c000934:	01c0fa04 	movi	r7,1000
 c000938:	c0079a40 	call	c0079a4 <serial_read_timeout>
 c00093c:	e0bff915 	stw	r2,-28(fp)
            n+5, 1000);

    if(!response)
 c000940:	e0bff817 	ldw	r2,-32(fp)
 c000944:	1000021e 	bne	r2,zero,c000950 <read_picture_to_ptr+0xe4>
        return 0;
 c000948:	0005883a 	mov	r2,zero
 c00094c:	00000406 	br	c000960 <read_picture_to_ptr+0xf4>

    frame_ptr += n;
 c000950:	e0ffff03 	ldbu	r3,-4(fp)
 c000954:	d0a6e20b 	ldhu	r2,-25720(gp)
 c000958:	1885883a 	add	r2,r3,r2
 c00095c:	d0a6e20d 	sth	r2,-25720(gp)

}
 c000960:	e037883a 	mov	sp,fp
 c000964:	dfc00117 	ldw	ra,4(sp)
 c000968:	df000017 	ldw	fp,0(sp)
 c00096c:	dec00204 	addi	sp,sp,8
 c000970:	f800283a 	ret

0c000974 <print_byte_array>:
 *      Author: Zeyad
 */


void print_byte_array(unsigned char * byte_array, int size)
{
 c000974:	defffb04 	addi	sp,sp,-20
 c000978:	dfc00415 	stw	ra,16(sp)
 c00097c:	df000315 	stw	fp,12(sp)
 c000980:	df000304 	addi	fp,sp,12
 c000984:	e13ffe15 	stw	r4,-8(fp)
 c000988:	e17fff15 	stw	r5,-4(fp)
    int byte_array_index;
    for (byte_array_index = 0; byte_array_index < size; byte_array_index++)
 c00098c:	e03ffd15 	stw	zero,-12(fp)
 c000990:	00000c06 	br	c0009c4 <print_byte_array+0x50>
        printf("[%02x]", byte_array[byte_array_index]);
 c000994:	e0bffd17 	ldw	r2,-12(fp)
 c000998:	e0fffe17 	ldw	r3,-8(fp)
 c00099c:	1885883a 	add	r2,r3,r2
 c0009a0:	10800003 	ldbu	r2,0(r2)
 c0009a4:	10803fcc 	andi	r2,r2,255
 c0009a8:	01030074 	movhi	r4,3073
 c0009ac:	211eee04 	addi	r4,r4,31672
 c0009b0:	100b883a 	mov	r5,r2
 c0009b4:	c0098040 	call	c009804 <printf>


void print_byte_array(unsigned char * byte_array, int size)
{
    int byte_array_index;
    for (byte_array_index = 0; byte_array_index < size; byte_array_index++)
 c0009b8:	e0bffd17 	ldw	r2,-12(fp)
 c0009bc:	10800044 	addi	r2,r2,1
 c0009c0:	e0bffd15 	stw	r2,-12(fp)
 c0009c4:	e0fffd17 	ldw	r3,-12(fp)
 c0009c8:	e0bfff17 	ldw	r2,-4(fp)
 c0009cc:	18bff116 	blt	r3,r2,c000994 <__alt_data_end+0xfc000994>
        printf("[%02x]", byte_array[byte_array_index]);
    printf("\n");
 c0009d0:	01000284 	movi	r4,10
 c0009d4:	c0098480 	call	c009848 <putchar>
}
 c0009d8:	e037883a 	mov	sp,fp
 c0009dc:	dfc00117 	ldw	ra,4(sp)
 c0009e0:	df000017 	ldw	fp,0(sp)
 c0009e4:	dec00204 	addi	sp,sp,8
 c0009e8:	f800283a 	ret

0c0009ec <write_a_pixel>:
/*
 * This function writes a single pixel to the x,y coords specified using the specified colour
 * Note colour is a byte and represents a palette number (0-255) not a 24 bit RGB value
 */
void write_a_pixel(int x, int y, int colour)
{
 c0009ec:	defffc04 	addi	sp,sp,-16
 c0009f0:	df000315 	stw	fp,12(sp)
 c0009f4:	df000304 	addi	fp,sp,12
 c0009f8:	e13ffd15 	stw	r4,-12(fp)
 c0009fc:	e17ffe15 	stw	r5,-8(fp)
 c000a00:	e1bfff15 	stw	r6,-4(fp)
	WAIT_FOR_GRAPHICS;				// is graphics ready for new command
 c000a04:	0001883a 	nop
 c000a08:	00a10034 	movhi	r2,33792
 c000a0c:	1080000b 	ldhu	r2,0(r2)
 c000a10:	10bfffcc 	andi	r2,r2,65535
 c000a14:	1080004c 	andi	r2,r2,1
 c000a18:	103ffb26 	beq	r2,zero,c000a08 <__alt_data_end+0xfc000a08>

	GraphicsX1Reg = x;				// write coords to x1, y1
 c000a1c:	00a10034 	movhi	r2,33792
 c000a20:	10800084 	addi	r2,r2,2
 c000a24:	e0fffd17 	ldw	r3,-12(fp)
 c000a28:	10c0000d 	sth	r3,0(r2)
	GraphicsY1Reg = y;
 c000a2c:	00a10034 	movhi	r2,33792
 c000a30:	10800104 	addi	r2,r2,4
 c000a34:	e0fffe17 	ldw	r3,-8(fp)
 c000a38:	10c0000d 	sth	r3,0(r2)
	GraphicsColourReg = colour;			// set pixel colour
 c000a3c:	00a10034 	movhi	r2,33792
 c000a40:	10800384 	addi	r2,r2,14
 c000a44:	e0ffff17 	ldw	r3,-4(fp)
 c000a48:	10c0000d 	sth	r3,0(r2)
	GraphicsCommandReg = PutAPixel;			// give graphics "write pixel" command
 c000a4c:	00a10034 	movhi	r2,33792
 c000a50:	00c00284 	movi	r3,10
 c000a54:	10c0000d 	sth	r3,0(r2)
}
 c000a58:	e037883a 	mov	sp,fp
 c000a5c:	df000017 	ldw	fp,0(sp)
 c000a60:	dec00104 	addi	sp,sp,4
 c000a64:	f800283a 	ret

0c000a68 <read_a_pixel>:
/*
 * This function read a single pixel from the x,y coords specified and returns its colour
 * Note returned colour is a byte and represents a palette number (0-255) not a 24 bit RGB value
 */
int read_a_pixel(int x, int y)
{
 c000a68:	defffd04 	addi	sp,sp,-12
 c000a6c:	df000215 	stw	fp,8(sp)
 c000a70:	df000204 	addi	fp,sp,8
 c000a74:	e13ffe15 	stw	r4,-8(fp)
 c000a78:	e17fff15 	stw	r5,-4(fp)
	WAIT_FOR_GRAPHICS;			// is graphics ready for new command
 c000a7c:	0001883a 	nop
 c000a80:	00a10034 	movhi	r2,33792
 c000a84:	1080000b 	ldhu	r2,0(r2)
 c000a88:	10bfffcc 	andi	r2,r2,65535
 c000a8c:	1080004c 	andi	r2,r2,1
 c000a90:	103ffb26 	beq	r2,zero,c000a80 <__alt_data_end+0xfc000a80>

	GraphicsX1Reg = x;			// write coords to x1, y1
 c000a94:	00a10034 	movhi	r2,33792
 c000a98:	10800084 	addi	r2,r2,2
 c000a9c:	e0fffe17 	ldw	r3,-8(fp)
 c000aa0:	10c0000d 	sth	r3,0(r2)
	GraphicsY1Reg = y;
 c000aa4:	00a10034 	movhi	r2,33792
 c000aa8:	10800104 	addi	r2,r2,4
 c000aac:	e0ffff17 	ldw	r3,-4(fp)
 c000ab0:	10c0000d 	sth	r3,0(r2)
	GraphicsCommandReg = GetAPixel;		// give graphics a "get pixel" command
 c000ab4:	00a10034 	movhi	r2,33792
 c000ab8:	00c002c4 	movi	r3,11
 c000abc:	10c0000d 	sth	r3,0(r2)

	WAIT_FOR_GRAPHICS;			// is graphics done reading pixel
 c000ac0:	0001883a 	nop
 c000ac4:	00a10034 	movhi	r2,33792
 c000ac8:	1080000b 	ldhu	r2,0(r2)
 c000acc:	10bfffcc 	andi	r2,r2,65535
 c000ad0:	1080004c 	andi	r2,r2,1
 c000ad4:	103ffb26 	beq	r2,zero,c000ac4 <__alt_data_end+0xfc000ac4>
	return (int)(GraphicsColourReg) ;	// return the palette number (colour)
 c000ad8:	00a10034 	movhi	r2,33792
 c000adc:	10800384 	addi	r2,r2,14
 c000ae0:	1080000b 	ldhu	r2,0(r2)
 c000ae4:	10bfffcc 	andi	r2,r2,65535
}
 c000ae8:	e037883a 	mov	sp,fp
 c000aec:	df000017 	ldw	fp,0(sp)
 c000af0:	dec00104 	addi	sp,sp,4
 c000af4:	f800283a 	ret

0c000af8 <program_palette>:
 * subroutine to program a hardware (graphics chip) palette number with an RGB value
 * e.g. program_palette(RED, 0x00FF0000) ;
 *
 */
void program_palette(int PaletteNumber, uint32_t RGB)
{
 c000af8:	defffd04 	addi	sp,sp,-12
 c000afc:	df000215 	stw	fp,8(sp)
 c000b00:	df000204 	addi	fp,sp,8
 c000b04:	e13ffe15 	stw	r4,-8(fp)
 c000b08:	e17fff15 	stw	r5,-4(fp)
    WAIT_FOR_GRAPHICS;
 c000b0c:	0001883a 	nop
 c000b10:	00a10034 	movhi	r2,33792
 c000b14:	1080000b 	ldhu	r2,0(r2)
 c000b18:	10bfffcc 	andi	r2,r2,65535
 c000b1c:	1080004c 	andi	r2,r2,1
 c000b20:	103ffb26 	beq	r2,zero,c000b10 <__alt_data_end+0xfc000b10>
    GraphicsColourReg = PaletteNumber;
 c000b24:	00a10034 	movhi	r2,33792
 c000b28:	10800384 	addi	r2,r2,14
 c000b2c:	e0fffe17 	ldw	r3,-8(fp)
 c000b30:	10c0000d 	sth	r3,0(r2)
    GraphicsX1Reg = RGB >> 16   ;        // program red value in ls.8 bit of X1 reg
 c000b34:	00a10034 	movhi	r2,33792
 c000b38:	10800084 	addi	r2,r2,2
 c000b3c:	e0ffff17 	ldw	r3,-4(fp)
 c000b40:	1806d43a 	srli	r3,r3,16
 c000b44:	10c0000d 	sth	r3,0(r2)
    GraphicsY1Reg = RGB ;                // program green and blue into ls 16 bit of Y1 reg
 c000b48:	00a10034 	movhi	r2,33792
 c000b4c:	10800104 	addi	r2,r2,4
 c000b50:	e0ffff17 	ldw	r3,-4(fp)
 c000b54:	10c0000d 	sth	r3,0(r2)
    GraphicsCommandReg = ProgramPaletteColour; // issue command
 c000b58:	00a10034 	movhi	r2,33792
 c000b5c:	00c00404 	movi	r3,16
 c000b60:	10c0000d 	sth	r3,0(r2)
}
 c000b64:	e037883a 	mov	sp,fp
 c000b68:	df000017 	ldw	fp,0(sp)
 c000b6c:	dec00104 	addi	sp,sp,4
 c000b70:	f800283a 	ret

0c000b74 <horizontal_line>:

/*
 * This function draw a horizontal line, 1 pixel at a time starting at the x,y coords specified
 */
void horizontal_line(int x1, int y1, int length, int colour)
{
 c000b74:	defffa04 	addi	sp,sp,-24
 c000b78:	df000515 	stw	fp,20(sp)
 c000b7c:	df000504 	addi	fp,sp,20
 c000b80:	e13ffc15 	stw	r4,-16(fp)
 c000b84:	e17ffd15 	stw	r5,-12(fp)
 c000b88:	e1bffe15 	stw	r6,-8(fp)
 c000b8c:	e1ffff15 	stw	r7,-4(fp)
	int x2 = x1 + length;
 c000b90:	e0fffc17 	ldw	r3,-16(fp)
 c000b94:	e0bffe17 	ldw	r2,-8(fp)
 c000b98:	1885883a 	add	r2,r3,r2
 c000b9c:	e0bffb15 	stw	r2,-20(fp)
	WAIT_FOR_GRAPHICS;				// is graphics ready for new command
 c000ba0:	0001883a 	nop
 c000ba4:	00a10034 	movhi	r2,33792
 c000ba8:	1080000b 	ldhu	r2,0(r2)
 c000bac:	10bfffcc 	andi	r2,r2,65535
 c000bb0:	1080004c 	andi	r2,r2,1
 c000bb4:	103ffb26 	beq	r2,zero,c000ba4 <__alt_data_end+0xfc000ba4>
	GraphicsX1Reg = x1;				// write coords to x1, y1
 c000bb8:	00a10034 	movhi	r2,33792
 c000bbc:	10800084 	addi	r2,r2,2
 c000bc0:	e0fffc17 	ldw	r3,-16(fp)
 c000bc4:	10c0000d 	sth	r3,0(r2)
	GraphicsY1Reg = y1;
 c000bc8:	00a10034 	movhi	r2,33792
 c000bcc:	10800104 	addi	r2,r2,4
 c000bd0:	e0fffd17 	ldw	r3,-12(fp)
 c000bd4:	10c0000d 	sth	r3,0(r2)
	GraphicsX2Reg = x2;
 c000bd8:	00a10034 	movhi	r2,33792
 c000bdc:	10800184 	addi	r2,r2,6
 c000be0:	e0fffb17 	ldw	r3,-20(fp)
 c000be4:	10c0000d 	sth	r3,0(r2)
	GraphicsY2Reg = y1;
 c000be8:	00a10034 	movhi	r2,33792
 c000bec:	10800204 	addi	r2,r2,8
 c000bf0:	e0fffd17 	ldw	r3,-12(fp)
 c000bf4:	10c0000d 	sth	r3,0(r2)
	GraphicsColourReg = colour;			// set pixel colour
 c000bf8:	00a10034 	movhi	r2,33792
 c000bfc:	10800384 	addi	r2,r2,14
 c000c00:	e0ffff17 	ldw	r3,-4(fp)
 c000c04:	10c0000d 	sth	r3,0(r2)
	GraphicsCommandReg = DrawHLine;			// give graphics "write pixel" command
 c000c08:	00a10034 	movhi	r2,33792
 c000c0c:	00c00044 	movi	r3,1
 c000c10:	10c0000d 	sth	r3,0(r2)
}
 c000c14:	e037883a 	mov	sp,fp
 c000c18:	df000017 	ldw	fp,0(sp)
 c000c1c:	dec00104 	addi	sp,sp,4
 c000c20:	f800283a 	ret

0c000c24 <vertical_line>:

/*
 *This function draw a vertical line, 1 pixel at a time starting at the x,y coords specified
 */
void vertical_line(int x1, int y1, int length, int colour)
{
 c000c24:	defffa04 	addi	sp,sp,-24
 c000c28:	df000515 	stw	fp,20(sp)
 c000c2c:	df000504 	addi	fp,sp,20
 c000c30:	e13ffc15 	stw	r4,-16(fp)
 c000c34:	e17ffd15 	stw	r5,-12(fp)
 c000c38:	e1bffe15 	stw	r6,-8(fp)
 c000c3c:	e1ffff15 	stw	r7,-4(fp)
	int y2 = y1 + length;
 c000c40:	e0fffd17 	ldw	r3,-12(fp)
 c000c44:	e0bffe17 	ldw	r2,-8(fp)
 c000c48:	1885883a 	add	r2,r3,r2
 c000c4c:	e0bffb15 	stw	r2,-20(fp)
	WAIT_FOR_GRAPHICS;				// is graphics ready for new command
 c000c50:	0001883a 	nop
 c000c54:	00a10034 	movhi	r2,33792
 c000c58:	1080000b 	ldhu	r2,0(r2)
 c000c5c:	10bfffcc 	andi	r2,r2,65535
 c000c60:	1080004c 	andi	r2,r2,1
 c000c64:	103ffb26 	beq	r2,zero,c000c54 <__alt_data_end+0xfc000c54>
	GraphicsX1Reg = x1;				// write coords to x1, y1
 c000c68:	00a10034 	movhi	r2,33792
 c000c6c:	10800084 	addi	r2,r2,2
 c000c70:	e0fffc17 	ldw	r3,-16(fp)
 c000c74:	10c0000d 	sth	r3,0(r2)
	GraphicsY1Reg = y1;
 c000c78:	00a10034 	movhi	r2,33792
 c000c7c:	10800104 	addi	r2,r2,4
 c000c80:	e0fffd17 	ldw	r3,-12(fp)
 c000c84:	10c0000d 	sth	r3,0(r2)
	GraphicsX2Reg = x1;
 c000c88:	00a10034 	movhi	r2,33792
 c000c8c:	10800184 	addi	r2,r2,6
 c000c90:	e0fffc17 	ldw	r3,-16(fp)
 c000c94:	10c0000d 	sth	r3,0(r2)
	GraphicsY2Reg = y2;
 c000c98:	00a10034 	movhi	r2,33792
 c000c9c:	10800204 	addi	r2,r2,8
 c000ca0:	e0fffb17 	ldw	r3,-20(fp)
 c000ca4:	10c0000d 	sth	r3,0(r2)
	GraphicsColourReg = colour;			// set pixel colour
 c000ca8:	00a10034 	movhi	r2,33792
 c000cac:	10800384 	addi	r2,r2,14
 c000cb0:	e0ffff17 	ldw	r3,-4(fp)
 c000cb4:	10c0000d 	sth	r3,0(r2)
	GraphicsCommandReg = DrawVLine;			// give graphics "write pixel" command
 c000cb8:	00a10034 	movhi	r2,33792
 c000cbc:	00c00084 	movi	r3,2
 c000cc0:	10c0000d 	sth	r3,0(r2)
}
 c000cc4:	e037883a 	mov	sp,fp
 c000cc8:	df000017 	ldw	fp,0(sp)
 c000ccc:	dec00104 	addi	sp,sp,4
 c000cd0:	f800283a 	ret

0c000cd4 <line>:

/*
 * Implementation of Bresenhams line drawing algorithm
 */
void line(int x1, int y1, int x2, int y2, int colour)
{
 c000cd4:	defffb04 	addi	sp,sp,-20
 c000cd8:	df000415 	stw	fp,16(sp)
 c000cdc:	df000404 	addi	fp,sp,16
 c000ce0:	e13ffc15 	stw	r4,-16(fp)
 c000ce4:	e17ffd15 	stw	r5,-12(fp)
 c000ce8:	e1bffe15 	stw	r6,-8(fp)
 c000cec:	e1ffff15 	stw	r7,-4(fp)
	WAIT_FOR_GRAPHICS;				// is graphics ready for new command
 c000cf0:	0001883a 	nop
 c000cf4:	00a10034 	movhi	r2,33792
 c000cf8:	1080000b 	ldhu	r2,0(r2)
 c000cfc:	10bfffcc 	andi	r2,r2,65535
 c000d00:	1080004c 	andi	r2,r2,1
 c000d04:	103ffb26 	beq	r2,zero,c000cf4 <__alt_data_end+0xfc000cf4>
	GraphicsX1Reg = x1;				// write coords to x1, y1
 c000d08:	00a10034 	movhi	r2,33792
 c000d0c:	10800084 	addi	r2,r2,2
 c000d10:	e0fffc17 	ldw	r3,-16(fp)
 c000d14:	10c0000d 	sth	r3,0(r2)
	GraphicsY1Reg = y1;
 c000d18:	00a10034 	movhi	r2,33792
 c000d1c:	10800104 	addi	r2,r2,4
 c000d20:	e0fffd17 	ldw	r3,-12(fp)
 c000d24:	10c0000d 	sth	r3,0(r2)
	GraphicsX2Reg = x2;
 c000d28:	00a10034 	movhi	r2,33792
 c000d2c:	10800184 	addi	r2,r2,6
 c000d30:	e0fffe17 	ldw	r3,-8(fp)
 c000d34:	10c0000d 	sth	r3,0(r2)
	GraphicsY2Reg = y2;
 c000d38:	00a10034 	movhi	r2,33792
 c000d3c:	10800204 	addi	r2,r2,8
 c000d40:	e0ffff17 	ldw	r3,-4(fp)
 c000d44:	10c0000d 	sth	r3,0(r2)
	GraphicsColourReg = colour;		// set pixel colour
 c000d48:	00a10034 	movhi	r2,33792
 c000d4c:	10800384 	addi	r2,r2,14
 c000d50:	e0c00117 	ldw	r3,4(fp)
 c000d54:	10c0000d 	sth	r3,0(r2)
	GraphicsCommandReg = DrawLine;	// give graphics "write pixel" command
 c000d58:	00a10034 	movhi	r2,33792
 c000d5c:	00c000c4 	movi	r3,3
 c000d60:	10c0000d 	sth	r3,0(r2)
}
 c000d64:	e037883a 	mov	sp,fp
 c000d68:	df000017 	ldw	fp,0(sp)
 c000d6c:	dec00104 	addi	sp,sp,4
 c000d70:	f800283a 	ret

0c000d74 <rectangle>:

/*
 * Draw a rectangle with top left corner x1,y1 and bottom right corner x2,y2, and with colour
 */
void rectangle(int x1, int y1, int x2, int y2, int colour)
{
 c000d74:	defff804 	addi	sp,sp,-32
 c000d78:	dfc00715 	stw	ra,28(sp)
 c000d7c:	df000615 	stw	fp,24(sp)
 c000d80:	df000604 	addi	fp,sp,24
 c000d84:	e13ffc15 	stw	r4,-16(fp)
 c000d88:	e17ffd15 	stw	r5,-12(fp)
 c000d8c:	e1bffe15 	stw	r6,-8(fp)
 c000d90:	e1ffff15 	stw	r7,-4(fp)
	int i;

	for(i = 0; i < (y2-y1); i++){
 c000d94:	e03ffb15 	stw	zero,-20(fp)
 c000d98:	00000f06 	br	c000dd8 <rectangle+0x64>
		line(x1,y1+i,x2,y1+i,colour);
 c000d9c:	e0fffd17 	ldw	r3,-12(fp)
 c000da0:	e0bffb17 	ldw	r2,-20(fp)
 c000da4:	188b883a 	add	r5,r3,r2
 c000da8:	e0fffd17 	ldw	r3,-12(fp)
 c000dac:	e0bffb17 	ldw	r2,-20(fp)
 c000db0:	1887883a 	add	r3,r3,r2
 c000db4:	e0800217 	ldw	r2,8(fp)
 c000db8:	d8800015 	stw	r2,0(sp)
 c000dbc:	e13ffc17 	ldw	r4,-16(fp)
 c000dc0:	e1bffe17 	ldw	r6,-8(fp)
 c000dc4:	180f883a 	mov	r7,r3
 c000dc8:	c000cd40 	call	c000cd4 <line>
 */
void rectangle(int x1, int y1, int x2, int y2, int colour)
{
	int i;

	for(i = 0; i < (y2-y1); i++){
 c000dcc:	e0bffb17 	ldw	r2,-20(fp)
 c000dd0:	10800044 	addi	r2,r2,1
 c000dd4:	e0bffb15 	stw	r2,-20(fp)
 c000dd8:	e0ffff17 	ldw	r3,-4(fp)
 c000ddc:	e0bffd17 	ldw	r2,-12(fp)
 c000de0:	1885c83a 	sub	r2,r3,r2
 c000de4:	e0fffb17 	ldw	r3,-20(fp)
 c000de8:	18bfec16 	blt	r3,r2,c000d9c <__alt_data_end+0xfc000d9c>
		line(x1,y1+i,x2,y1+i,colour);
	}
}
 c000dec:	e037883a 	mov	sp,fp
 c000df0:	dfc00117 	ldw	ra,4(sp)
 c000df4:	df000017 	ldw	fp,0(sp)
 c000df8:	dec00204 	addi	sp,sp,8
 c000dfc:	f800283a 	ret

0c000e00 <right_triangle>:

/*
 * Draw a right pointing triangle with top edge at x1,y1 with height and colour
 */
void right_triangle(int x1, int y1, int height, int colour)
{
 c000e00:	defff804 	addi	sp,sp,-32
 c000e04:	dfc00715 	stw	ra,28(sp)
 c000e08:	df000615 	stw	fp,24(sp)
 c000e0c:	df000604 	addi	fp,sp,24
 c000e10:	e13ffc15 	stw	r4,-16(fp)
 c000e14:	e17ffd15 	stw	r5,-12(fp)
 c000e18:	e1bffe15 	stw	r6,-8(fp)
 c000e1c:	e1ffff15 	stw	r7,-4(fp)
	int i;
	for(i=0;i<(height/2);i++){
 c000e20:	e03ffb15 	stw	zero,-20(fp)
 c000e24:	00001106 	br	c000e6c <right_triangle+0x6c>
		line(x1,y1+i,x1+i,y1+i,colour);
 c000e28:	e0fffd17 	ldw	r3,-12(fp)
 c000e2c:	e0bffb17 	ldw	r2,-20(fp)
 c000e30:	188b883a 	add	r5,r3,r2
 c000e34:	e0fffc17 	ldw	r3,-16(fp)
 c000e38:	e0bffb17 	ldw	r2,-20(fp)
 c000e3c:	188d883a 	add	r6,r3,r2
 c000e40:	e0fffd17 	ldw	r3,-12(fp)
 c000e44:	e0bffb17 	ldw	r2,-20(fp)
 c000e48:	1887883a 	add	r3,r3,r2
 c000e4c:	e0bfff17 	ldw	r2,-4(fp)
 c000e50:	d8800015 	stw	r2,0(sp)
 c000e54:	e13ffc17 	ldw	r4,-16(fp)
 c000e58:	180f883a 	mov	r7,r3
 c000e5c:	c000cd40 	call	c000cd4 <line>
 * Draw a right pointing triangle with top edge at x1,y1 with height and colour
 */
void right_triangle(int x1, int y1, int height, int colour)
{
	int i;
	for(i=0;i<(height/2);i++){
 c000e60:	e0bffb17 	ldw	r2,-20(fp)
 c000e64:	10800044 	addi	r2,r2,1
 c000e68:	e0bffb15 	stw	r2,-20(fp)
 c000e6c:	e0bffe17 	ldw	r2,-8(fp)
 c000e70:	1006d7fa 	srli	r3,r2,31
 c000e74:	1885883a 	add	r2,r3,r2
 c000e78:	1005d07a 	srai	r2,r2,1
 c000e7c:	1007883a 	mov	r3,r2
 c000e80:	e0bffb17 	ldw	r2,-20(fp)
 c000e84:	10ffe816 	blt	r2,r3,c000e28 <__alt_data_end+0xfc000e28>
		line(x1,y1+i,x1+i,y1+i,colour);
	}
	for(i=0;i<(height/2);i++){
 c000e88:	e03ffb15 	stw	zero,-20(fp)
 c000e8c:	00002606 	br	c000f28 <right_triangle+0x128>
		line(x1,y1+(height/2)+i-1,x1+(height/2)-i-1,y1+(height/2)+i-1,colour);
 c000e90:	e0bffe17 	ldw	r2,-8(fp)
 c000e94:	1006d7fa 	srli	r3,r2,31
 c000e98:	1885883a 	add	r2,r3,r2
 c000e9c:	1005d07a 	srai	r2,r2,1
 c000ea0:	1007883a 	mov	r3,r2
 c000ea4:	e0bffd17 	ldw	r2,-12(fp)
 c000ea8:	1887883a 	add	r3,r3,r2
 c000eac:	e0bffb17 	ldw	r2,-20(fp)
 c000eb0:	1885883a 	add	r2,r3,r2
 c000eb4:	117fffc4 	addi	r5,r2,-1
 c000eb8:	e0bffe17 	ldw	r2,-8(fp)
 c000ebc:	1006d7fa 	srli	r3,r2,31
 c000ec0:	1885883a 	add	r2,r3,r2
 c000ec4:	1005d07a 	srai	r2,r2,1
 c000ec8:	1007883a 	mov	r3,r2
 c000ecc:	e0bffc17 	ldw	r2,-16(fp)
 c000ed0:	1887883a 	add	r3,r3,r2
 c000ed4:	e0bffb17 	ldw	r2,-20(fp)
 c000ed8:	1885c83a 	sub	r2,r3,r2
 c000edc:	11bfffc4 	addi	r6,r2,-1
 c000ee0:	e0bffe17 	ldw	r2,-8(fp)
 c000ee4:	1006d7fa 	srli	r3,r2,31
 c000ee8:	1885883a 	add	r2,r3,r2
 c000eec:	1005d07a 	srai	r2,r2,1
 c000ef0:	1007883a 	mov	r3,r2
 c000ef4:	e0bffd17 	ldw	r2,-12(fp)
 c000ef8:	1887883a 	add	r3,r3,r2
 c000efc:	e0bffb17 	ldw	r2,-20(fp)
 c000f00:	1885883a 	add	r2,r3,r2
 c000f04:	10ffffc4 	addi	r3,r2,-1
 c000f08:	e0bfff17 	ldw	r2,-4(fp)
 c000f0c:	d8800015 	stw	r2,0(sp)
 c000f10:	e13ffc17 	ldw	r4,-16(fp)
 c000f14:	180f883a 	mov	r7,r3
 c000f18:	c000cd40 	call	c000cd4 <line>
{
	int i;
	for(i=0;i<(height/2);i++){
		line(x1,y1+i,x1+i,y1+i,colour);
	}
	for(i=0;i<(height/2);i++){
 c000f1c:	e0bffb17 	ldw	r2,-20(fp)
 c000f20:	10800044 	addi	r2,r2,1
 c000f24:	e0bffb15 	stw	r2,-20(fp)
 c000f28:	e0bffe17 	ldw	r2,-8(fp)
 c000f2c:	1006d7fa 	srli	r3,r2,31
 c000f30:	1885883a 	add	r2,r3,r2
 c000f34:	1005d07a 	srai	r2,r2,1
 c000f38:	1007883a 	mov	r3,r2
 c000f3c:	e0bffb17 	ldw	r2,-20(fp)
 c000f40:	10ffd316 	blt	r2,r3,c000e90 <__alt_data_end+0xfc000e90>
		line(x1,y1+(height/2)+i-1,x1+(height/2)-i-1,y1+(height/2)+i-1,colour);
	}
}
 c000f44:	e037883a 	mov	sp,fp
 c000f48:	dfc00117 	ldw	ra,4(sp)
 c000f4c:	df000017 	ldw	fp,0(sp)
 c000f50:	dec00204 	addi	sp,sp,8
 c000f54:	f800283a 	ret

0c000f58 <left_triangle>:

/*
 * Draw a left pointing triangle with top edge at x1,y1 with height and colour
 */
void left_triangle(int x1, int y1, int height, int colour)
{
 c000f58:	defff804 	addi	sp,sp,-32
 c000f5c:	dfc00715 	stw	ra,28(sp)
 c000f60:	df000615 	stw	fp,24(sp)
 c000f64:	df000604 	addi	fp,sp,24
 c000f68:	e13ffc15 	stw	r4,-16(fp)
 c000f6c:	e17ffd15 	stw	r5,-12(fp)
 c000f70:	e1bffe15 	stw	r6,-8(fp)
 c000f74:	e1ffff15 	stw	r7,-4(fp)
	int i;
	for(i=0;i<(height/2);i++){
 c000f78:	e03ffb15 	stw	zero,-20(fp)
 c000f7c:	00001106 	br	c000fc4 <left_triangle+0x6c>
		line(x1,y1+i,x1-i,y1+i,colour);
 c000f80:	e0fffd17 	ldw	r3,-12(fp)
 c000f84:	e0bffb17 	ldw	r2,-20(fp)
 c000f88:	188b883a 	add	r5,r3,r2
 c000f8c:	e0fffc17 	ldw	r3,-16(fp)
 c000f90:	e0bffb17 	ldw	r2,-20(fp)
 c000f94:	188dc83a 	sub	r6,r3,r2
 c000f98:	e0fffd17 	ldw	r3,-12(fp)
 c000f9c:	e0bffb17 	ldw	r2,-20(fp)
 c000fa0:	1887883a 	add	r3,r3,r2
 c000fa4:	e0bfff17 	ldw	r2,-4(fp)
 c000fa8:	d8800015 	stw	r2,0(sp)
 c000fac:	e13ffc17 	ldw	r4,-16(fp)
 c000fb0:	180f883a 	mov	r7,r3
 c000fb4:	c000cd40 	call	c000cd4 <line>
 * Draw a left pointing triangle with top edge at x1,y1 with height and colour
 */
void left_triangle(int x1, int y1, int height, int colour)
{
	int i;
	for(i=0;i<(height/2);i++){
 c000fb8:	e0bffb17 	ldw	r2,-20(fp)
 c000fbc:	10800044 	addi	r2,r2,1
 c000fc0:	e0bffb15 	stw	r2,-20(fp)
 c000fc4:	e0bffe17 	ldw	r2,-8(fp)
 c000fc8:	1006d7fa 	srli	r3,r2,31
 c000fcc:	1885883a 	add	r2,r3,r2
 c000fd0:	1005d07a 	srai	r2,r2,1
 c000fd4:	1007883a 	mov	r3,r2
 c000fd8:	e0bffb17 	ldw	r2,-20(fp)
 c000fdc:	10ffe816 	blt	r2,r3,c000f80 <__alt_data_end+0xfc000f80>
		line(x1,y1+i,x1-i,y1+i,colour);
	}
	for(i=0;i<(height/2);i++){
 c000fe0:	e03ffb15 	stw	zero,-20(fp)
 c000fe4:	00002606 	br	c001080 <left_triangle+0x128>
		line(x1,y1+(height/2)+i-1,x1-(height/2)+i-1,y1+(height/2)+i-1,colour);
 c000fe8:	e0bffe17 	ldw	r2,-8(fp)
 c000fec:	1006d7fa 	srli	r3,r2,31
 c000ff0:	1885883a 	add	r2,r3,r2
 c000ff4:	1005d07a 	srai	r2,r2,1
 c000ff8:	1007883a 	mov	r3,r2
 c000ffc:	e0bffd17 	ldw	r2,-12(fp)
 c001000:	1887883a 	add	r3,r3,r2
 c001004:	e0bffb17 	ldw	r2,-20(fp)
 c001008:	1885883a 	add	r2,r3,r2
 c00100c:	117fffc4 	addi	r5,r2,-1
 c001010:	e0bffe17 	ldw	r2,-8(fp)
 c001014:	1006d7fa 	srli	r3,r2,31
 c001018:	1885883a 	add	r2,r3,r2
 c00101c:	1005d07a 	srai	r2,r2,1
 c001020:	1007883a 	mov	r3,r2
 c001024:	e0bffc17 	ldw	r2,-16(fp)
 c001028:	10c7c83a 	sub	r3,r2,r3
 c00102c:	e0bffb17 	ldw	r2,-20(fp)
 c001030:	1885883a 	add	r2,r3,r2
 c001034:	11bfffc4 	addi	r6,r2,-1
 c001038:	e0bffe17 	ldw	r2,-8(fp)
 c00103c:	1006d7fa 	srli	r3,r2,31
 c001040:	1885883a 	add	r2,r3,r2
 c001044:	1005d07a 	srai	r2,r2,1
 c001048:	1007883a 	mov	r3,r2
 c00104c:	e0bffd17 	ldw	r2,-12(fp)
 c001050:	1887883a 	add	r3,r3,r2
 c001054:	e0bffb17 	ldw	r2,-20(fp)
 c001058:	1885883a 	add	r2,r3,r2
 c00105c:	10ffffc4 	addi	r3,r2,-1
 c001060:	e0bfff17 	ldw	r2,-4(fp)
 c001064:	d8800015 	stw	r2,0(sp)
 c001068:	e13ffc17 	ldw	r4,-16(fp)
 c00106c:	180f883a 	mov	r7,r3
 c001070:	c000cd40 	call	c000cd4 <line>
{
	int i;
	for(i=0;i<(height/2);i++){
		line(x1,y1+i,x1-i,y1+i,colour);
	}
	for(i=0;i<(height/2);i++){
 c001074:	e0bffb17 	ldw	r2,-20(fp)
 c001078:	10800044 	addi	r2,r2,1
 c00107c:	e0bffb15 	stw	r2,-20(fp)
 c001080:	e0bffe17 	ldw	r2,-8(fp)
 c001084:	1006d7fa 	srli	r3,r2,31
 c001088:	1885883a 	add	r2,r3,r2
 c00108c:	1005d07a 	srai	r2,r2,1
 c001090:	1007883a 	mov	r3,r2
 c001094:	e0bffb17 	ldw	r2,-20(fp)
 c001098:	10ffd316 	blt	r2,r3,c000fe8 <__alt_data_end+0xfc000fe8>
		line(x1,y1+(height/2)+i-1,x1-(height/2)+i-1,y1+(height/2)+i-1,colour);
	}
}
 c00109c:	e037883a 	mov	sp,fp
 c0010a0:	dfc00117 	ldw	ra,4(sp)
 c0010a4:	df000017 	ldw	fp,0(sp)
 c0010a8:	dec00204 	addi	sp,sp,8
 c0010ac:	f800283a 	ret

0c0010b0 <down_triangle>:

/*
 * Draw a downwards pointing triangle with left edge at x1,y1 with height and colour
 */
void down_triangle(int x1, int y1, int height, int colour)
{
 c0010b0:	defff804 	addi	sp,sp,-32
 c0010b4:	dfc00715 	stw	ra,28(sp)
 c0010b8:	df000615 	stw	fp,24(sp)
 c0010bc:	df000604 	addi	fp,sp,24
 c0010c0:	e13ffc15 	stw	r4,-16(fp)
 c0010c4:	e17ffd15 	stw	r5,-12(fp)
 c0010c8:	e1bffe15 	stw	r6,-8(fp)
 c0010cc:	e1ffff15 	stw	r7,-4(fp)
	int i;
	for(i=0;i<(height/2);i++){
 c0010d0:	e03ffb15 	stw	zero,-20(fp)
 c0010d4:	00001106 	br	c00111c <down_triangle+0x6c>
		line(x1+i,y1,x1+i,y1+i,colour);
 c0010d8:	e0fffc17 	ldw	r3,-16(fp)
 c0010dc:	e0bffb17 	ldw	r2,-20(fp)
 c0010e0:	1889883a 	add	r4,r3,r2
 c0010e4:	e0fffc17 	ldw	r3,-16(fp)
 c0010e8:	e0bffb17 	ldw	r2,-20(fp)
 c0010ec:	188d883a 	add	r6,r3,r2
 c0010f0:	e0fffd17 	ldw	r3,-12(fp)
 c0010f4:	e0bffb17 	ldw	r2,-20(fp)
 c0010f8:	1887883a 	add	r3,r3,r2
 c0010fc:	e0bfff17 	ldw	r2,-4(fp)
 c001100:	d8800015 	stw	r2,0(sp)
 c001104:	e17ffd17 	ldw	r5,-12(fp)
 c001108:	180f883a 	mov	r7,r3
 c00110c:	c000cd40 	call	c000cd4 <line>
 * Draw a downwards pointing triangle with left edge at x1,y1 with height and colour
 */
void down_triangle(int x1, int y1, int height, int colour)
{
	int i;
	for(i=0;i<(height/2);i++){
 c001110:	e0bffb17 	ldw	r2,-20(fp)
 c001114:	10800044 	addi	r2,r2,1
 c001118:	e0bffb15 	stw	r2,-20(fp)
 c00111c:	e0bffe17 	ldw	r2,-8(fp)
 c001120:	1006d7fa 	srli	r3,r2,31
 c001124:	1885883a 	add	r2,r3,r2
 c001128:	1005d07a 	srai	r2,r2,1
 c00112c:	1007883a 	mov	r3,r2
 c001130:	e0bffb17 	ldw	r2,-20(fp)
 c001134:	10ffe816 	blt	r2,r3,c0010d8 <__alt_data_end+0xfc0010d8>
		line(x1+i,y1,x1+i,y1+i,colour);
	}
	for(i=0;i<(height/2);i++){
 c001138:	e03ffb15 	stw	zero,-20(fp)
 c00113c:	00002606 	br	c0011d8 <down_triangle+0x128>
		line(x1+(height/2)+i-1,y1,x1+(height/2)+i-1,y1+(height/2)-i-1,colour);
 c001140:	e0bffe17 	ldw	r2,-8(fp)
 c001144:	1006d7fa 	srli	r3,r2,31
 c001148:	1885883a 	add	r2,r3,r2
 c00114c:	1005d07a 	srai	r2,r2,1
 c001150:	1007883a 	mov	r3,r2
 c001154:	e0bffc17 	ldw	r2,-16(fp)
 c001158:	1887883a 	add	r3,r3,r2
 c00115c:	e0bffb17 	ldw	r2,-20(fp)
 c001160:	1885883a 	add	r2,r3,r2
 c001164:	113fffc4 	addi	r4,r2,-1
 c001168:	e0bffe17 	ldw	r2,-8(fp)
 c00116c:	1006d7fa 	srli	r3,r2,31
 c001170:	1885883a 	add	r2,r3,r2
 c001174:	1005d07a 	srai	r2,r2,1
 c001178:	1007883a 	mov	r3,r2
 c00117c:	e0bffc17 	ldw	r2,-16(fp)
 c001180:	1887883a 	add	r3,r3,r2
 c001184:	e0bffb17 	ldw	r2,-20(fp)
 c001188:	1885883a 	add	r2,r3,r2
 c00118c:	11bfffc4 	addi	r6,r2,-1
 c001190:	e0bffe17 	ldw	r2,-8(fp)
 c001194:	1006d7fa 	srli	r3,r2,31
 c001198:	1885883a 	add	r2,r3,r2
 c00119c:	1005d07a 	srai	r2,r2,1
 c0011a0:	1007883a 	mov	r3,r2
 c0011a4:	e0bffd17 	ldw	r2,-12(fp)
 c0011a8:	1887883a 	add	r3,r3,r2
 c0011ac:	e0bffb17 	ldw	r2,-20(fp)
 c0011b0:	1885c83a 	sub	r2,r3,r2
 c0011b4:	10ffffc4 	addi	r3,r2,-1
 c0011b8:	e0bfff17 	ldw	r2,-4(fp)
 c0011bc:	d8800015 	stw	r2,0(sp)
 c0011c0:	e17ffd17 	ldw	r5,-12(fp)
 c0011c4:	180f883a 	mov	r7,r3
 c0011c8:	c000cd40 	call	c000cd4 <line>
{
	int i;
	for(i=0;i<(height/2);i++){
		line(x1+i,y1,x1+i,y1+i,colour);
	}
	for(i=0;i<(height/2);i++){
 c0011cc:	e0bffb17 	ldw	r2,-20(fp)
 c0011d0:	10800044 	addi	r2,r2,1
 c0011d4:	e0bffb15 	stw	r2,-20(fp)
 c0011d8:	e0bffe17 	ldw	r2,-8(fp)
 c0011dc:	1006d7fa 	srli	r3,r2,31
 c0011e0:	1885883a 	add	r2,r3,r2
 c0011e4:	1005d07a 	srai	r2,r2,1
 c0011e8:	1007883a 	mov	r3,r2
 c0011ec:	e0bffb17 	ldw	r2,-20(fp)
 c0011f0:	10ffd316 	blt	r2,r3,c001140 <__alt_data_end+0xfc001140>
		line(x1+(height/2)+i-1,y1,x1+(height/2)+i-1,y1+(height/2)-i-1,colour);
	}
}
 c0011f4:	e037883a 	mov	sp,fp
 c0011f8:	dfc00117 	ldw	ra,4(sp)
 c0011fc:	df000017 	ldw	fp,0(sp)
 c001200:	dec00204 	addi	sp,sp,8
 c001204:	f800283a 	ret

0c001208 <up_triangle>:

/*
 * Draw an upwards pointing triangle with left edge at x1,y1 with height and colour
 */
void up_triangle(int x1, int y1, int height, int colour)
{
 c001208:	defff804 	addi	sp,sp,-32
 c00120c:	dfc00715 	stw	ra,28(sp)
 c001210:	df000615 	stw	fp,24(sp)
 c001214:	df000604 	addi	fp,sp,24
 c001218:	e13ffc15 	stw	r4,-16(fp)
 c00121c:	e17ffd15 	stw	r5,-12(fp)
 c001220:	e1bffe15 	stw	r6,-8(fp)
 c001224:	e1ffff15 	stw	r7,-4(fp)
	int i;
	for(i=0;i<(height/2);i++){
 c001228:	e03ffb15 	stw	zero,-20(fp)
 c00122c:	00001106 	br	c001274 <up_triangle+0x6c>
		line(x1+i,y1,x1+i,y1-i,colour);
 c001230:	e0fffc17 	ldw	r3,-16(fp)
 c001234:	e0bffb17 	ldw	r2,-20(fp)
 c001238:	1889883a 	add	r4,r3,r2
 c00123c:	e0fffc17 	ldw	r3,-16(fp)
 c001240:	e0bffb17 	ldw	r2,-20(fp)
 c001244:	188d883a 	add	r6,r3,r2
 c001248:	e0fffd17 	ldw	r3,-12(fp)
 c00124c:	e0bffb17 	ldw	r2,-20(fp)
 c001250:	1887c83a 	sub	r3,r3,r2
 c001254:	e0bfff17 	ldw	r2,-4(fp)
 c001258:	d8800015 	stw	r2,0(sp)
 c00125c:	e17ffd17 	ldw	r5,-12(fp)
 c001260:	180f883a 	mov	r7,r3
 c001264:	c000cd40 	call	c000cd4 <line>
 * Draw an upwards pointing triangle with left edge at x1,y1 with height and colour
 */
void up_triangle(int x1, int y1, int height, int colour)
{
	int i;
	for(i=0;i<(height/2);i++){
 c001268:	e0bffb17 	ldw	r2,-20(fp)
 c00126c:	10800044 	addi	r2,r2,1
 c001270:	e0bffb15 	stw	r2,-20(fp)
 c001274:	e0bffe17 	ldw	r2,-8(fp)
 c001278:	1006d7fa 	srli	r3,r2,31
 c00127c:	1885883a 	add	r2,r3,r2
 c001280:	1005d07a 	srai	r2,r2,1
 c001284:	1007883a 	mov	r3,r2
 c001288:	e0bffb17 	ldw	r2,-20(fp)
 c00128c:	10ffe816 	blt	r2,r3,c001230 <__alt_data_end+0xfc001230>
		line(x1+i,y1,x1+i,y1-i,colour);
	}
	for(i=0;i<(height/2);i++){
 c001290:	e03ffb15 	stw	zero,-20(fp)
 c001294:	00002606 	br	c001330 <up_triangle+0x128>
		line(x1+(height/2)+i-1,y1,x1+(height/2)+i-1,y1-(height/2)+i-1,colour);
 c001298:	e0bffe17 	ldw	r2,-8(fp)
 c00129c:	1006d7fa 	srli	r3,r2,31
 c0012a0:	1885883a 	add	r2,r3,r2
 c0012a4:	1005d07a 	srai	r2,r2,1
 c0012a8:	1007883a 	mov	r3,r2
 c0012ac:	e0bffc17 	ldw	r2,-16(fp)
 c0012b0:	1887883a 	add	r3,r3,r2
 c0012b4:	e0bffb17 	ldw	r2,-20(fp)
 c0012b8:	1885883a 	add	r2,r3,r2
 c0012bc:	113fffc4 	addi	r4,r2,-1
 c0012c0:	e0bffe17 	ldw	r2,-8(fp)
 c0012c4:	1006d7fa 	srli	r3,r2,31
 c0012c8:	1885883a 	add	r2,r3,r2
 c0012cc:	1005d07a 	srai	r2,r2,1
 c0012d0:	1007883a 	mov	r3,r2
 c0012d4:	e0bffc17 	ldw	r2,-16(fp)
 c0012d8:	1887883a 	add	r3,r3,r2
 c0012dc:	e0bffb17 	ldw	r2,-20(fp)
 c0012e0:	1885883a 	add	r2,r3,r2
 c0012e4:	11bfffc4 	addi	r6,r2,-1
 c0012e8:	e0bffe17 	ldw	r2,-8(fp)
 c0012ec:	1006d7fa 	srli	r3,r2,31
 c0012f0:	1885883a 	add	r2,r3,r2
 c0012f4:	1005d07a 	srai	r2,r2,1
 c0012f8:	1007883a 	mov	r3,r2
 c0012fc:	e0bffd17 	ldw	r2,-12(fp)
 c001300:	10c7c83a 	sub	r3,r2,r3
 c001304:	e0bffb17 	ldw	r2,-20(fp)
 c001308:	1885883a 	add	r2,r3,r2
 c00130c:	10ffffc4 	addi	r3,r2,-1
 c001310:	e0bfff17 	ldw	r2,-4(fp)
 c001314:	d8800015 	stw	r2,0(sp)
 c001318:	e17ffd17 	ldw	r5,-12(fp)
 c00131c:	180f883a 	mov	r7,r3
 c001320:	c000cd40 	call	c000cd4 <line>
{
	int i;
	for(i=0;i<(height/2);i++){
		line(x1+i,y1,x1+i,y1-i,colour);
	}
	for(i=0;i<(height/2);i++){
 c001324:	e0bffb17 	ldw	r2,-20(fp)
 c001328:	10800044 	addi	r2,r2,1
 c00132c:	e0bffb15 	stw	r2,-20(fp)
 c001330:	e0bffe17 	ldw	r2,-8(fp)
 c001334:	1006d7fa 	srli	r3,r2,31
 c001338:	1885883a 	add	r2,r3,r2
 c00133c:	1005d07a 	srai	r2,r2,1
 c001340:	1007883a 	mov	r3,r2
 c001344:	e0bffb17 	ldw	r2,-20(fp)
 c001348:	10ffd316 	blt	r2,r3,c001298 <__alt_data_end+0xfc001298>
		line(x1+(height/2)+i-1,y1,x1+(height/2)+i-1,y1-(height/2)+i-1,colour);
	}
}
 c00134c:	e037883a 	mov	sp,fp
 c001350:	dfc00117 	ldw	ra,4(sp)
 c001354:	df000017 	ldw	fp,0(sp)
 c001358:	dec00204 	addi	sp,sp,8
 c00135c:	f800283a 	ret

0c001360 <circle>:
/*
 * Draw circle centered at x0,y0 with radius
 */
void circle(int x0, int y0, int radius, int colour)

{
 c001360:	defff704 	addi	sp,sp,-36
 c001364:	dfc00815 	stw	ra,32(sp)
 c001368:	df000715 	stw	fp,28(sp)
 c00136c:	df000704 	addi	fp,sp,28
 c001370:	e13ffc15 	stw	r4,-16(fp)
 c001374:	e17ffd15 	stw	r5,-12(fp)
 c001378:	e1bffe15 	stw	r6,-8(fp)
 c00137c:	e1ffff15 	stw	r7,-4(fp)
    int x = radius;
 c001380:	e0bffe17 	ldw	r2,-8(fp)
 c001384:	e0bff915 	stw	r2,-28(fp)
    int y = 0;
 c001388:	e03ffa15 	stw	zero,-24(fp)
    int err = 0;
 c00138c:	e03ffb15 	stw	zero,-20(fp)

    while (x >= y)
 c001390:	00005e06 	br	c00150c <circle+0x1ac>
    {
        write_a_pixel(x0 + x, y0 + y, colour);
 c001394:	e0fffc17 	ldw	r3,-16(fp)
 c001398:	e0bff917 	ldw	r2,-28(fp)
 c00139c:	1889883a 	add	r4,r3,r2
 c0013a0:	e0fffd17 	ldw	r3,-12(fp)
 c0013a4:	e0bffa17 	ldw	r2,-24(fp)
 c0013a8:	1885883a 	add	r2,r3,r2
 c0013ac:	100b883a 	mov	r5,r2
 c0013b0:	e1bfff17 	ldw	r6,-4(fp)
 c0013b4:	c0009ec0 	call	c0009ec <write_a_pixel>
        write_a_pixel(x0 + y, y0 + x, colour);
 c0013b8:	e0fffc17 	ldw	r3,-16(fp)
 c0013bc:	e0bffa17 	ldw	r2,-24(fp)
 c0013c0:	1889883a 	add	r4,r3,r2
 c0013c4:	e0fffd17 	ldw	r3,-12(fp)
 c0013c8:	e0bff917 	ldw	r2,-28(fp)
 c0013cc:	1885883a 	add	r2,r3,r2
 c0013d0:	100b883a 	mov	r5,r2
 c0013d4:	e1bfff17 	ldw	r6,-4(fp)
 c0013d8:	c0009ec0 	call	c0009ec <write_a_pixel>
        write_a_pixel(x0 - y, y0 + x, colour);
 c0013dc:	e0fffc17 	ldw	r3,-16(fp)
 c0013e0:	e0bffa17 	ldw	r2,-24(fp)
 c0013e4:	1889c83a 	sub	r4,r3,r2
 c0013e8:	e0fffd17 	ldw	r3,-12(fp)
 c0013ec:	e0bff917 	ldw	r2,-28(fp)
 c0013f0:	1885883a 	add	r2,r3,r2
 c0013f4:	100b883a 	mov	r5,r2
 c0013f8:	e1bfff17 	ldw	r6,-4(fp)
 c0013fc:	c0009ec0 	call	c0009ec <write_a_pixel>
        write_a_pixel(x0 - x, y0 + y, colour);
 c001400:	e0fffc17 	ldw	r3,-16(fp)
 c001404:	e0bff917 	ldw	r2,-28(fp)
 c001408:	1889c83a 	sub	r4,r3,r2
 c00140c:	e0fffd17 	ldw	r3,-12(fp)
 c001410:	e0bffa17 	ldw	r2,-24(fp)
 c001414:	1885883a 	add	r2,r3,r2
 c001418:	100b883a 	mov	r5,r2
 c00141c:	e1bfff17 	ldw	r6,-4(fp)
 c001420:	c0009ec0 	call	c0009ec <write_a_pixel>
        write_a_pixel(x0 - x, y0 - y, colour);
 c001424:	e0fffc17 	ldw	r3,-16(fp)
 c001428:	e0bff917 	ldw	r2,-28(fp)
 c00142c:	1889c83a 	sub	r4,r3,r2
 c001430:	e0fffd17 	ldw	r3,-12(fp)
 c001434:	e0bffa17 	ldw	r2,-24(fp)
 c001438:	1885c83a 	sub	r2,r3,r2
 c00143c:	100b883a 	mov	r5,r2
 c001440:	e1bfff17 	ldw	r6,-4(fp)
 c001444:	c0009ec0 	call	c0009ec <write_a_pixel>
        write_a_pixel(x0 - y, y0 - x, colour);
 c001448:	e0fffc17 	ldw	r3,-16(fp)
 c00144c:	e0bffa17 	ldw	r2,-24(fp)
 c001450:	1889c83a 	sub	r4,r3,r2
 c001454:	e0fffd17 	ldw	r3,-12(fp)
 c001458:	e0bff917 	ldw	r2,-28(fp)
 c00145c:	1885c83a 	sub	r2,r3,r2
 c001460:	100b883a 	mov	r5,r2
 c001464:	e1bfff17 	ldw	r6,-4(fp)
 c001468:	c0009ec0 	call	c0009ec <write_a_pixel>
        write_a_pixel(x0 + y, y0 - x, colour);
 c00146c:	e0fffc17 	ldw	r3,-16(fp)
 c001470:	e0bffa17 	ldw	r2,-24(fp)
 c001474:	1889883a 	add	r4,r3,r2
 c001478:	e0fffd17 	ldw	r3,-12(fp)
 c00147c:	e0bff917 	ldw	r2,-28(fp)
 c001480:	1885c83a 	sub	r2,r3,r2
 c001484:	100b883a 	mov	r5,r2
 c001488:	e1bfff17 	ldw	r6,-4(fp)
 c00148c:	c0009ec0 	call	c0009ec <write_a_pixel>
        write_a_pixel(x0 + x, y0 - y, colour);
 c001490:	e0fffc17 	ldw	r3,-16(fp)
 c001494:	e0bff917 	ldw	r2,-28(fp)
 c001498:	1889883a 	add	r4,r3,r2
 c00149c:	e0fffd17 	ldw	r3,-12(fp)
 c0014a0:	e0bffa17 	ldw	r2,-24(fp)
 c0014a4:	1885c83a 	sub	r2,r3,r2
 c0014a8:	100b883a 	mov	r5,r2
 c0014ac:	e1bfff17 	ldw	r6,-4(fp)
 c0014b0:	c0009ec0 	call	c0009ec <write_a_pixel>

        if (err <= 0)
 c0014b4:	e0bffb17 	ldw	r2,-20(fp)
 c0014b8:	00800916 	blt	zero,r2,c0014e0 <circle+0x180>
        {
            y += 1;
 c0014bc:	e0bffa17 	ldw	r2,-24(fp)
 c0014c0:	10800044 	addi	r2,r2,1
 c0014c4:	e0bffa15 	stw	r2,-24(fp)
            err += 2*y + 1;
 c0014c8:	e0bffa17 	ldw	r2,-24(fp)
 c0014cc:	1085883a 	add	r2,r2,r2
 c0014d0:	10800044 	addi	r2,r2,1
 c0014d4:	e0fffb17 	ldw	r3,-20(fp)
 c0014d8:	1885883a 	add	r2,r3,r2
 c0014dc:	e0bffb15 	stw	r2,-20(fp)
        }
        if (err > 0)
 c0014e0:	e0bffb17 	ldw	r2,-20(fp)
 c0014e4:	0080090e 	bge	zero,r2,c00150c <circle+0x1ac>
        {
            x -= 1;
 c0014e8:	e0bff917 	ldw	r2,-28(fp)
 c0014ec:	10bfffc4 	addi	r2,r2,-1
 c0014f0:	e0bff915 	stw	r2,-28(fp)
            err -= 2*x + 1;
 c0014f4:	e0bff917 	ldw	r2,-28(fp)
 c0014f8:	1085883a 	add	r2,r2,r2
 c0014fc:	0084303a 	nor	r2,zero,r2
 c001500:	e0fffb17 	ldw	r3,-20(fp)
 c001504:	1885883a 	add	r2,r3,r2
 c001508:	e0bffb15 	stw	r2,-20(fp)
{
    int x = radius;
    int y = 0;
    int err = 0;

    while (x >= y)
 c00150c:	e0fff917 	ldw	r3,-28(fp)
 c001510:	e0bffa17 	ldw	r2,-24(fp)
 c001514:	18bf9f0e 	bge	r3,r2,c001394 <__alt_data_end+0xfc001394>
        {
            x -= 1;
            err -= 2*x + 1;
        }
    }
    fill(x0,y0,colour,colour);
 c001518:	e13ffc17 	ldw	r4,-16(fp)
 c00151c:	e17ffd17 	ldw	r5,-12(fp)
 c001520:	e1bfff17 	ldw	r6,-4(fp)
 c001524:	e1ffff17 	ldw	r7,-4(fp)
 c001528:	c001f840 	call	c001f84 <fill>
}
 c00152c:	e037883a 	mov	sp,fp
 c001530:	dfc00117 	ldw	ra,4(sp)
 c001534:	df000017 	ldw	fp,0(sp)
 c001538:	dec00204 	addi	sp,sp,8
 c00153c:	f800283a 	ret

0c001540 <clear_screen>:

/*
 * Clear the screen
 */
void clear_screen(void)
{
 c001540:	defffc04 	addi	sp,sp,-16
 c001544:	dfc00315 	stw	ra,12(sp)
 c001548:	df000215 	stw	fp,8(sp)
 c00154c:	df000204 	addi	fp,sp,8
	int i;
	for(i=0;i<480;i++){
 c001550:	e03fff15 	stw	zero,-4(fp)
 c001554:	00000906 	br	c00157c <clear_screen+0x3c>
		line(0,i,799,i,BLACK);
 c001558:	d8000015 	stw	zero,0(sp)
 c00155c:	0009883a 	mov	r4,zero
 c001560:	e17fff17 	ldw	r5,-4(fp)
 c001564:	0180c7c4 	movi	r6,799
 c001568:	e1ffff17 	ldw	r7,-4(fp)
 c00156c:	c000cd40 	call	c000cd4 <line>
 * Clear the screen
 */
void clear_screen(void)
{
	int i;
	for(i=0;i<480;i++){
 c001570:	e0bfff17 	ldw	r2,-4(fp)
 c001574:	10800044 	addi	r2,r2,1
 c001578:	e0bfff15 	stw	r2,-4(fp)
 c00157c:	e0bfff17 	ldw	r2,-4(fp)
 c001580:	10807810 	cmplti	r2,r2,480
 c001584:	103ff41e 	bne	r2,zero,c001558 <__alt_data_end+0xfc001558>
		line(0,i,799,i,BLACK);
	}
}
 c001588:	e037883a 	mov	sp,fp
 c00158c:	dfc00117 	ldw	ra,4(sp)
 c001590:	df000017 	ldw	fp,0(sp)
 c001594:	dec00204 	addi	sp,sp,8
 c001598:	f800283a 	ret

0c00159c <reticle>:

/*
 * Draw reticle to center of the screen
 */
void reticle(int colour)
{
 c00159c:	defffc04 	addi	sp,sp,-16
 c0015a0:	dfc00315 	stw	ra,12(sp)
 c0015a4:	df000215 	stw	fp,8(sp)
 c0015a8:	df000204 	addi	fp,sp,8
 c0015ac:	e13fff15 	stw	r4,-4(fp)
	rectangle(398,150,402,330,colour);
 c0015b0:	e0bfff17 	ldw	r2,-4(fp)
 c0015b4:	d8800015 	stw	r2,0(sp)
 c0015b8:	01006384 	movi	r4,398
 c0015bc:	01402584 	movi	r5,150
 c0015c0:	01806484 	movi	r6,402
 c0015c4:	01c05284 	movi	r7,330
 c0015c8:	c000d740 	call	c000d74 <rectangle>
	rectangle(310,238,490,242,colour);
 c0015cc:	e0bfff17 	ldw	r2,-4(fp)
 c0015d0:	d8800015 	stw	r2,0(sp)
 c0015d4:	01004d84 	movi	r4,310
 c0015d8:	01403b84 	movi	r5,238
 c0015dc:	01807a84 	movi	r6,490
 c0015e0:	01c03c84 	movi	r7,242
 c0015e4:	c000d740 	call	c000d74 <rectangle>
	rectangle(340,272,460,274,colour);
 c0015e8:	e0bfff17 	ldw	r2,-4(fp)
 c0015ec:	d8800015 	stw	r2,0(sp)
 c0015f0:	01005504 	movi	r4,340
 c0015f4:	01404404 	movi	r5,272
 c0015f8:	01807304 	movi	r6,460
 c0015fc:	01c04484 	movi	r7,274
 c001600:	c000d740 	call	c000d74 <rectangle>
	rectangle(370,304,430,306,colour);
 c001604:	e0bfff17 	ldw	r2,-4(fp)
 c001608:	d8800015 	stw	r2,0(sp)
 c00160c:	01005c84 	movi	r4,370
 c001610:	01404c04 	movi	r5,304
 c001614:	01806b84 	movi	r6,430
 c001618:	01c04c84 	movi	r7,306
 c00161c:	c000d740 	call	c000d74 <rectangle>
}
 c001620:	e037883a 	mov	sp,fp
 c001624:	dfc00117 	ldw	ra,4(sp)
 c001628:	df000017 	ldw	fp,0(sp)
 c00162c:	dec00204 	addi	sp,sp,8
 c001630:	f800283a 	ret

0c001634 <print_display>:
/*
 * Draw set arrow layout with colour
 */
void print_display(int arrow_colour, int menu_colour, int screen_colour,
				  int reticle_colour, int fire_colour)
{
 c001634:	defffa04 	addi	sp,sp,-24
 c001638:	dfc00515 	stw	ra,20(sp)
 c00163c:	df000415 	stw	fp,16(sp)
 c001640:	df000404 	addi	fp,sp,16
 c001644:	e13ffc15 	stw	r4,-16(fp)
 c001648:	e17ffd15 	stw	r5,-12(fp)
 c00164c:	e1bffe15 	stw	r6,-8(fp)
 c001650:	e1ffff15 	stw	r7,-4(fp)
	clear_screen();
 c001654:	c0015400 	call	c001540 <clear_screen>
	//rectangle(60,60,740,420,screen_colour);
	//reticle(reticle_colour);

	//MENU ICONS
	draw_button(fire,fire_colour);
 c001658:	010000c4 	movi	r4,3
 c00165c:	e1400217 	ldw	r5,8(fp)
 c001660:	c0016cc0 	call	c0016cc <draw_button>
	draw_button(security,menu_colour);
 c001664:	01000084 	movi	r4,2
 c001668:	e17ffd17 	ldw	r5,-12(fp)
 c00166c:	c0016cc0 	call	c0016cc <draw_button>
	draw_button(manual,menu_colour);
 c001670:	0009883a 	mov	r4,zero
 c001674:	e17ffd17 	ldw	r5,-12(fp)
 c001678:	c0016cc0 	call	c0016cc <draw_button>
	draw_button(automatic,menu_colour);
 c00167c:	01000044 	movi	r4,1
 c001680:	e17ffd17 	ldw	r5,-12(fp)
 c001684:	c0016cc0 	call	c0016cc <draw_button>
	draw_button(left,arrow_colour);
 c001688:	01000104 	movi	r4,4
 c00168c:	e17ffc17 	ldw	r5,-16(fp)
 c001690:	c0016cc0 	call	c0016cc <draw_button>
	draw_button(right,arrow_colour);
 c001694:	01000144 	movi	r4,5
 c001698:	e17ffc17 	ldw	r5,-16(fp)
 c00169c:	c0016cc0 	call	c0016cc <draw_button>
	draw_button(up,arrow_colour);
 c0016a0:	010001c4 	movi	r4,7
 c0016a4:	e17ffc17 	ldw	r5,-16(fp)
 c0016a8:	c0016cc0 	call	c0016cc <draw_button>
	draw_button(down,arrow_colour);
 c0016ac:	01000184 	movi	r4,6
 c0016b0:	e17ffc17 	ldw	r5,-16(fp)
 c0016b4:	c0016cc0 	call	c0016cc <draw_button>
}
 c0016b8:	e037883a 	mov	sp,fp
 c0016bc:	dfc00117 	ldw	ra,4(sp)
 c0016c0:	df000017 	ldw	fp,0(sp)
 c0016c4:	dec00204 	addi	sp,sp,8
 c0016c8:	f800283a 	ret

0c0016cc <draw_button>:

void draw_button(button_type button, int colour){
 c0016cc:	defffa04 	addi	sp,sp,-24
 c0016d0:	dfc00515 	stw	ra,20(sp)
 c0016d4:	df000415 	stw	fp,16(sp)
 c0016d8:	df000404 	addi	fp,sp,16
 c0016dc:	e13ffe15 	stw	r4,-8(fp)
 c0016e0:	e17fff15 	stw	r5,-4(fp)
	switch(button){
 c0016e4:	e0bffe17 	ldw	r2,-8(fp)
 c0016e8:	10800428 	cmpgeui	r2,r2,16
 c0016ec:	1001e31e 	bne	r2,zero,c001e7c <draw_button+0x7b0>
 c0016f0:	e0bffe17 	ldw	r2,-8(fp)
 c0016f4:	100690ba 	slli	r3,r2,2
 c0016f8:	00830034 	movhi	r2,3072
 c0016fc:	1085c304 	addi	r2,r2,5900
 c001700:	1885883a 	add	r2,r3,r2
 c001704:	10800017 	ldw	r2,0(r2)
 c001708:	1000683a 	jmp	r2
 c00170c:	0c0017e4 	muli	r16,at,95
 c001710:	0c0018c4 	addi	r16,at,99
 c001714:	0c001964 	muli	r16,at,101
 c001718:	0c00174c 	andi	r16,at,93
 c00171c:	0c001a84 	addi	r16,at,106
 c001720:	0c001a9c 	xori	r16,at,106
 c001724:	0c001ab4 	orhi	r16,at,106
 c001728:	0c001acc 	andi	r16,at,107
 c00172c:	0c001b7c 	xorhi	r16,at,109
 c001730:	0c001c5c 	xori	r16,at,113
 c001734:	0c001cfc 	xorhi	r16,at,115
 c001738:	0c001ae4 	muli	r16,at,107
 c00173c:	0c001e4c 	andi	r16,at,121
 c001740:	0c001e64 	muli	r16,at,121
 c001744:	0c001e34 	orhi	r16,at,120
 c001748:	0c001e1c 	xori	r16,at,120

	case(fire):
		circle(600,450,20,colour);
 c00174c:	01009604 	movi	r4,600
 c001750:	01407084 	movi	r5,450
 c001754:	01800504 	movi	r6,20
 c001758:	e1ffff17 	ldw	r7,-4(fp)
 c00175c:	c0013600 	call	c001360 <circle>
		OutGraphicsCharFont1(590,447,BLACK,colour,'F',0);
 c001760:	00801184 	movi	r2,70
 c001764:	d8800015 	stw	r2,0(sp)
 c001768:	d8000115 	stw	zero,4(sp)
 c00176c:	01009384 	movi	r4,590
 c001770:	01406fc4 	movi	r5,447
 c001774:	000d883a 	mov	r6,zero
 c001778:	e1ffff17 	ldw	r7,-4(fp)
 c00177c:	c0023880 	call	c002388 <OutGraphicsCharFont1>
		OutGraphicsCharFont1(596,447,BLACK,colour,'I',0);
 c001780:	00801244 	movi	r2,73
 c001784:	d8800015 	stw	r2,0(sp)
 c001788:	d8000115 	stw	zero,4(sp)
 c00178c:	01009504 	movi	r4,596
 c001790:	01406fc4 	movi	r5,447
 c001794:	000d883a 	mov	r6,zero
 c001798:	e1ffff17 	ldw	r7,-4(fp)
 c00179c:	c0023880 	call	c002388 <OutGraphicsCharFont1>
		OutGraphicsCharFont1(602,447,BLACK,colour,'R',0);
 c0017a0:	00801484 	movi	r2,82
 c0017a4:	d8800015 	stw	r2,0(sp)
 c0017a8:	d8000115 	stw	zero,4(sp)
 c0017ac:	01009684 	movi	r4,602
 c0017b0:	01406fc4 	movi	r5,447
 c0017b4:	000d883a 	mov	r6,zero
 c0017b8:	e1ffff17 	ldw	r7,-4(fp)
 c0017bc:	c0023880 	call	c002388 <OutGraphicsCharFont1>
		OutGraphicsCharFont1(608,447,BLACK,colour,'E',0);
 c0017c0:	00801144 	movi	r2,69
 c0017c4:	d8800015 	stw	r2,0(sp)
 c0017c8:	d8000115 	stw	zero,4(sp)
 c0017cc:	01009804 	movi	r4,608
 c0017d0:	01406fc4 	movi	r5,447
 c0017d4:	000d883a 	mov	r6,zero
 c0017d8:	e1ffff17 	ldw	r7,-4(fp)
 c0017dc:	c0023880 	call	c002388 <OutGraphicsCharFont1>
		break;
 c0017e0:	0001a606 	br	c001e7c <draw_button+0x7b0>

	case(manual):
		rectangle(500,10,580,50,colour);
 c0017e4:	e0bfff17 	ldw	r2,-4(fp)
 c0017e8:	d8800015 	stw	r2,0(sp)
 c0017ec:	01007d04 	movi	r4,500
 c0017f0:	01400284 	movi	r5,10
 c0017f4:	01809104 	movi	r6,580
 c0017f8:	01c00c84 	movi	r7,50
 c0017fc:	c000d740 	call	c000d74 <rectangle>
		OutGraphicsCharFont1(520,27,BLACK,colour,'M',0);
 c001800:	00801344 	movi	r2,77
 c001804:	d8800015 	stw	r2,0(sp)
 c001808:	d8000115 	stw	zero,4(sp)
 c00180c:	01008204 	movi	r4,520
 c001810:	014006c4 	movi	r5,27
 c001814:	000d883a 	mov	r6,zero
 c001818:	e1ffff17 	ldw	r7,-4(fp)
 c00181c:	c0023880 	call	c002388 <OutGraphicsCharFont1>
		OutGraphicsCharFont1(528,27,BLACK,colour,'A',0);
 c001820:	00801044 	movi	r2,65
 c001824:	d8800015 	stw	r2,0(sp)
 c001828:	d8000115 	stw	zero,4(sp)
 c00182c:	01008404 	movi	r4,528
 c001830:	014006c4 	movi	r5,27
 c001834:	000d883a 	mov	r6,zero
 c001838:	e1ffff17 	ldw	r7,-4(fp)
 c00183c:	c0023880 	call	c002388 <OutGraphicsCharFont1>
		OutGraphicsCharFont1(536,27,BLACK,colour,'N',0);
 c001840:	00801384 	movi	r2,78
 c001844:	d8800015 	stw	r2,0(sp)
 c001848:	d8000115 	stw	zero,4(sp)
 c00184c:	01008604 	movi	r4,536
 c001850:	014006c4 	movi	r5,27
 c001854:	000d883a 	mov	r6,zero
 c001858:	e1ffff17 	ldw	r7,-4(fp)
 c00185c:	c0023880 	call	c002388 <OutGraphicsCharFont1>
		OutGraphicsCharFont1(544,27,BLACK,colour,'U',0);
 c001860:	00801544 	movi	r2,85
 c001864:	d8800015 	stw	r2,0(sp)
 c001868:	d8000115 	stw	zero,4(sp)
 c00186c:	01008804 	movi	r4,544
 c001870:	014006c4 	movi	r5,27
 c001874:	000d883a 	mov	r6,zero
 c001878:	e1ffff17 	ldw	r7,-4(fp)
 c00187c:	c0023880 	call	c002388 <OutGraphicsCharFont1>
		OutGraphicsCharFont1(552,27,BLACK,colour,'A',0);
 c001880:	00801044 	movi	r2,65
 c001884:	d8800015 	stw	r2,0(sp)
 c001888:	d8000115 	stw	zero,4(sp)
 c00188c:	01008a04 	movi	r4,552
 c001890:	014006c4 	movi	r5,27
 c001894:	000d883a 	mov	r6,zero
 c001898:	e1ffff17 	ldw	r7,-4(fp)
 c00189c:	c0023880 	call	c002388 <OutGraphicsCharFont1>
		OutGraphicsCharFont1(560,27,BLACK,colour,'L',0);
 c0018a0:	00801304 	movi	r2,76
 c0018a4:	d8800015 	stw	r2,0(sp)
 c0018a8:	d8000115 	stw	zero,4(sp)
 c0018ac:	01008c04 	movi	r4,560
 c0018b0:	014006c4 	movi	r5,27
 c0018b4:	000d883a 	mov	r6,zero
 c0018b8:	e1ffff17 	ldw	r7,-4(fp)
 c0018bc:	c0023880 	call	c002388 <OutGraphicsCharFont1>
		break;
 c0018c0:	00016e06 	br	c001e7c <draw_button+0x7b0>

	case(automatic):
		rectangle(590,10,670,50,colour);
 c0018c4:	e0bfff17 	ldw	r2,-4(fp)
 c0018c8:	d8800015 	stw	r2,0(sp)
 c0018cc:	01009384 	movi	r4,590
 c0018d0:	01400284 	movi	r5,10
 c0018d4:	0180a784 	movi	r6,670
 c0018d8:	01c00c84 	movi	r7,50
 c0018dc:	c000d740 	call	c000d74 <rectangle>
		OutGraphicsCharFont1(618,27,BLACK,colour,'A',0);
 c0018e0:	00801044 	movi	r2,65
 c0018e4:	d8800015 	stw	r2,0(sp)
 c0018e8:	d8000115 	stw	zero,4(sp)
 c0018ec:	01009a84 	movi	r4,618
 c0018f0:	014006c4 	movi	r5,27
 c0018f4:	000d883a 	mov	r6,zero
 c0018f8:	e1ffff17 	ldw	r7,-4(fp)
 c0018fc:	c0023880 	call	c002388 <OutGraphicsCharFont1>
		OutGraphicsCharFont1(624,27,BLACK,colour,'U',0);
 c001900:	00801544 	movi	r2,85
 c001904:	d8800015 	stw	r2,0(sp)
 c001908:	d8000115 	stw	zero,4(sp)
 c00190c:	01009c04 	movi	r4,624
 c001910:	014006c4 	movi	r5,27
 c001914:	000d883a 	mov	r6,zero
 c001918:	e1ffff17 	ldw	r7,-4(fp)
 c00191c:	c0023880 	call	c002388 <OutGraphicsCharFont1>
		OutGraphicsCharFont1(632,27,BLACK,colour,'T',0);
 c001920:	00801504 	movi	r2,84
 c001924:	d8800015 	stw	r2,0(sp)
 c001928:	d8000115 	stw	zero,4(sp)
 c00192c:	01009e04 	movi	r4,632
 c001930:	014006c4 	movi	r5,27
 c001934:	000d883a 	mov	r6,zero
 c001938:	e1ffff17 	ldw	r7,-4(fp)
 c00193c:	c0023880 	call	c002388 <OutGraphicsCharFont1>
		OutGraphicsCharFont1(640,27,BLACK,colour,'O',0);
 c001940:	008013c4 	movi	r2,79
 c001944:	d8800015 	stw	r2,0(sp)
 c001948:	d8000115 	stw	zero,4(sp)
 c00194c:	0100a004 	movi	r4,640
 c001950:	014006c4 	movi	r5,27
 c001954:	000d883a 	mov	r6,zero
 c001958:	e1ffff17 	ldw	r7,-4(fp)
 c00195c:	c0023880 	call	c002388 <OutGraphicsCharFont1>
		break;
 c001960:	00014606 	br	c001e7c <draw_button+0x7b0>

	case(security):
		rectangle(680,10,760,50,colour);
 c001964:	e0bfff17 	ldw	r2,-4(fp)
 c001968:	d8800015 	stw	r2,0(sp)
 c00196c:	0100aa04 	movi	r4,680
 c001970:	01400284 	movi	r5,10
 c001974:	0180be04 	movi	r6,760
 c001978:	01c00c84 	movi	r7,50
 c00197c:	c000d740 	call	c000d74 <rectangle>
		OutGraphicsCharFont1(692,27,BLACK,colour,'S',0);
 c001980:	008014c4 	movi	r2,83
 c001984:	d8800015 	stw	r2,0(sp)
 c001988:	d8000115 	stw	zero,4(sp)
 c00198c:	0100ad04 	movi	r4,692
 c001990:	014006c4 	movi	r5,27
 c001994:	000d883a 	mov	r6,zero
 c001998:	e1ffff17 	ldw	r7,-4(fp)
 c00199c:	c0023880 	call	c002388 <OutGraphicsCharFont1>
		OutGraphicsCharFont1(700,27,BLACK,colour,'E',0);
 c0019a0:	00801144 	movi	r2,69
 c0019a4:	d8800015 	stw	r2,0(sp)
 c0019a8:	d8000115 	stw	zero,4(sp)
 c0019ac:	0100af04 	movi	r4,700
 c0019b0:	014006c4 	movi	r5,27
 c0019b4:	000d883a 	mov	r6,zero
 c0019b8:	e1ffff17 	ldw	r7,-4(fp)
 c0019bc:	c0023880 	call	c002388 <OutGraphicsCharFont1>
		OutGraphicsCharFont1(708,27,BLACK,colour,'C',0);
 c0019c0:	008010c4 	movi	r2,67
 c0019c4:	d8800015 	stw	r2,0(sp)
 c0019c8:	d8000115 	stw	zero,4(sp)
 c0019cc:	0100b104 	movi	r4,708
 c0019d0:	014006c4 	movi	r5,27
 c0019d4:	000d883a 	mov	r6,zero
 c0019d8:	e1ffff17 	ldw	r7,-4(fp)
 c0019dc:	c0023880 	call	c002388 <OutGraphicsCharFont1>
		OutGraphicsCharFont1(716,27,BLACK,colour,'U',0);
 c0019e0:	00801544 	movi	r2,85
 c0019e4:	d8800015 	stw	r2,0(sp)
 c0019e8:	d8000115 	stw	zero,4(sp)
 c0019ec:	0100b304 	movi	r4,716
 c0019f0:	014006c4 	movi	r5,27
 c0019f4:	000d883a 	mov	r6,zero
 c0019f8:	e1ffff17 	ldw	r7,-4(fp)
 c0019fc:	c0023880 	call	c002388 <OutGraphicsCharFont1>
		OutGraphicsCharFont1(724,27,BLACK,colour,'R',0);
 c001a00:	00801484 	movi	r2,82
 c001a04:	d8800015 	stw	r2,0(sp)
 c001a08:	d8000115 	stw	zero,4(sp)
 c001a0c:	0100b504 	movi	r4,724
 c001a10:	014006c4 	movi	r5,27
 c001a14:	000d883a 	mov	r6,zero
 c001a18:	e1ffff17 	ldw	r7,-4(fp)
 c001a1c:	c0023880 	call	c002388 <OutGraphicsCharFont1>
		OutGraphicsCharFont1(732,27,BLACK,colour,'I',0);
 c001a20:	00801244 	movi	r2,73
 c001a24:	d8800015 	stw	r2,0(sp)
 c001a28:	d8000115 	stw	zero,4(sp)
 c001a2c:	0100b704 	movi	r4,732
 c001a30:	014006c4 	movi	r5,27
 c001a34:	000d883a 	mov	r6,zero
 c001a38:	e1ffff17 	ldw	r7,-4(fp)
 c001a3c:	c0023880 	call	c002388 <OutGraphicsCharFont1>
		OutGraphicsCharFont1(740,27,BLACK,colour,'T',0);
 c001a40:	00801504 	movi	r2,84
 c001a44:	d8800015 	stw	r2,0(sp)
 c001a48:	d8000115 	stw	zero,4(sp)
 c001a4c:	0100b904 	movi	r4,740
 c001a50:	014006c4 	movi	r5,27
 c001a54:	000d883a 	mov	r6,zero
 c001a58:	e1ffff17 	ldw	r7,-4(fp)
 c001a5c:	c0023880 	call	c002388 <OutGraphicsCharFont1>
		OutGraphicsCharFont1(748,27,BLACK,colour,'Y',0);
 c001a60:	00801644 	movi	r2,89
 c001a64:	d8800015 	stw	r2,0(sp)
 c001a68:	d8000115 	stw	zero,4(sp)
 c001a6c:	0100bb04 	movi	r4,748
 c001a70:	014006c4 	movi	r5,27
 c001a74:	000d883a 	mov	r6,zero
 c001a78:	e1ffff17 	ldw	r7,-4(fp)
 c001a7c:	c0023880 	call	c002388 <OutGraphicsCharFont1>
		break;
 c001a80:	0000fe06 	br	c001e7c <draw_button+0x7b0>

	case(left):
		left_triangle(LARROW_X1,LARROW_Y1,ARROW_LENGTH,colour);
 c001a84:	01000c84 	movi	r4,50
 c001a88:	01402f84 	movi	r5,190
 c001a8c:	01801904 	movi	r6,100
 c001a90:	e1ffff17 	ldw	r7,-4(fp)
 c001a94:	c000f580 	call	c000f58 <left_triangle>
		break;
 c001a98:	0000f806 	br	c001e7c <draw_button+0x7b0>

	case(right):
		right_triangle(RARROW_X1,RARROW_Y1,ARROW_LENGTH,colour);
 c001a9c:	0100bb84 	movi	r4,750
 c001aa0:	01402f84 	movi	r5,190
 c001aa4:	01801904 	movi	r6,100
 c001aa8:	e1ffff17 	ldw	r7,-4(fp)
 c001aac:	c000e000 	call	c000e00 <right_triangle>
		break;
 c001ab0:	0000f206 	br	c001e7c <draw_button+0x7b0>

	case(down):
		down_triangle(DARROW_X1,DARROW_Y1,ARROW_LENGTH,colour);
 c001ab4:	01005784 	movi	r4,350
 c001ab8:	01406b84 	movi	r5,430
 c001abc:	01801904 	movi	r6,100
 c001ac0:	e1ffff17 	ldw	r7,-4(fp)
 c001ac4:	c0010b00 	call	c0010b0 <down_triangle>
		break;
 c001ac8:	0000ec06 	br	c001e7c <draw_button+0x7b0>

	case(up):
		up_triangle(UARROW_X1,UARROW_Y1,ARROW_LENGTH,colour);
 c001acc:	01005784 	movi	r4,350
 c001ad0:	01400c84 	movi	r5,50
 c001ad4:	01801904 	movi	r6,100
 c001ad8:	e1ffff17 	ldw	r7,-4(fp)
 c001adc:	c0012080 	call	c001208 <up_triangle>
		break;
 c001ae0:	0000e606 	br	c001e7c <draw_button+0x7b0>

	case(fire_pressed):
			circle(600,450,17,colour);
 c001ae4:	01009604 	movi	r4,600
 c001ae8:	01407084 	movi	r5,450
 c001aec:	01800444 	movi	r6,17
 c001af0:	e1ffff17 	ldw	r7,-4(fp)
 c001af4:	c0013600 	call	c001360 <circle>
			OutGraphicsCharFont1(590,447,BLACK,colour,'F',0);
 c001af8:	00801184 	movi	r2,70
 c001afc:	d8800015 	stw	r2,0(sp)
 c001b00:	d8000115 	stw	zero,4(sp)
 c001b04:	01009384 	movi	r4,590
 c001b08:	01406fc4 	movi	r5,447
 c001b0c:	000d883a 	mov	r6,zero
 c001b10:	e1ffff17 	ldw	r7,-4(fp)
 c001b14:	c0023880 	call	c002388 <OutGraphicsCharFont1>
			OutGraphicsCharFont1(596,447,BLACK,colour,'I',0);
 c001b18:	00801244 	movi	r2,73
 c001b1c:	d8800015 	stw	r2,0(sp)
 c001b20:	d8000115 	stw	zero,4(sp)
 c001b24:	01009504 	movi	r4,596
 c001b28:	01406fc4 	movi	r5,447
 c001b2c:	000d883a 	mov	r6,zero
 c001b30:	e1ffff17 	ldw	r7,-4(fp)
 c001b34:	c0023880 	call	c002388 <OutGraphicsCharFont1>
			OutGraphicsCharFont1(602,447,BLACK,colour,'R',0);
 c001b38:	00801484 	movi	r2,82
 c001b3c:	d8800015 	stw	r2,0(sp)
 c001b40:	d8000115 	stw	zero,4(sp)
 c001b44:	01009684 	movi	r4,602
 c001b48:	01406fc4 	movi	r5,447
 c001b4c:	000d883a 	mov	r6,zero
 c001b50:	e1ffff17 	ldw	r7,-4(fp)
 c001b54:	c0023880 	call	c002388 <OutGraphicsCharFont1>
			OutGraphicsCharFont1(608,447,BLACK,colour,'E',0);
 c001b58:	00801144 	movi	r2,69
 c001b5c:	d8800015 	stw	r2,0(sp)
 c001b60:	d8000115 	stw	zero,4(sp)
 c001b64:	01009804 	movi	r4,608
 c001b68:	01406fc4 	movi	r5,447
 c001b6c:	000d883a 	mov	r6,zero
 c001b70:	e1ffff17 	ldw	r7,-4(fp)
 c001b74:	c0023880 	call	c002388 <OutGraphicsCharFont1>
			break;
 c001b78:	0000c006 	br	c001e7c <draw_button+0x7b0>

	case(manual_pressed):
			rectangle(503,13,577,47,colour);
 c001b7c:	e0bfff17 	ldw	r2,-4(fp)
 c001b80:	d8800015 	stw	r2,0(sp)
 c001b84:	01007dc4 	movi	r4,503
 c001b88:	01400344 	movi	r5,13
 c001b8c:	01809044 	movi	r6,577
 c001b90:	01c00bc4 	movi	r7,47
 c001b94:	c000d740 	call	c000d74 <rectangle>
			OutGraphicsCharFont1(520,27,BLACK,colour,'M',0);
 c001b98:	00801344 	movi	r2,77
 c001b9c:	d8800015 	stw	r2,0(sp)
 c001ba0:	d8000115 	stw	zero,4(sp)
 c001ba4:	01008204 	movi	r4,520
 c001ba8:	014006c4 	movi	r5,27
 c001bac:	000d883a 	mov	r6,zero
 c001bb0:	e1ffff17 	ldw	r7,-4(fp)
 c001bb4:	c0023880 	call	c002388 <OutGraphicsCharFont1>
			OutGraphicsCharFont1(528,27,BLACK,colour,'A',0);
 c001bb8:	00801044 	movi	r2,65
 c001bbc:	d8800015 	stw	r2,0(sp)
 c001bc0:	d8000115 	stw	zero,4(sp)
 c001bc4:	01008404 	movi	r4,528
 c001bc8:	014006c4 	movi	r5,27
 c001bcc:	000d883a 	mov	r6,zero
 c001bd0:	e1ffff17 	ldw	r7,-4(fp)
 c001bd4:	c0023880 	call	c002388 <OutGraphicsCharFont1>
			OutGraphicsCharFont1(536,27,BLACK,colour,'N',0);
 c001bd8:	00801384 	movi	r2,78
 c001bdc:	d8800015 	stw	r2,0(sp)
 c001be0:	d8000115 	stw	zero,4(sp)
 c001be4:	01008604 	movi	r4,536
 c001be8:	014006c4 	movi	r5,27
 c001bec:	000d883a 	mov	r6,zero
 c001bf0:	e1ffff17 	ldw	r7,-4(fp)
 c001bf4:	c0023880 	call	c002388 <OutGraphicsCharFont1>
			OutGraphicsCharFont1(544,27,BLACK,colour,'U',0);
 c001bf8:	00801544 	movi	r2,85
 c001bfc:	d8800015 	stw	r2,0(sp)
 c001c00:	d8000115 	stw	zero,4(sp)
 c001c04:	01008804 	movi	r4,544
 c001c08:	014006c4 	movi	r5,27
 c001c0c:	000d883a 	mov	r6,zero
 c001c10:	e1ffff17 	ldw	r7,-4(fp)
 c001c14:	c0023880 	call	c002388 <OutGraphicsCharFont1>
			OutGraphicsCharFont1(552,27,BLACK,colour,'A',0);
 c001c18:	00801044 	movi	r2,65
 c001c1c:	d8800015 	stw	r2,0(sp)
 c001c20:	d8000115 	stw	zero,4(sp)
 c001c24:	01008a04 	movi	r4,552
 c001c28:	014006c4 	movi	r5,27
 c001c2c:	000d883a 	mov	r6,zero
 c001c30:	e1ffff17 	ldw	r7,-4(fp)
 c001c34:	c0023880 	call	c002388 <OutGraphicsCharFont1>
			OutGraphicsCharFont1(560,27,BLACK,colour,'L',0);
 c001c38:	00801304 	movi	r2,76
 c001c3c:	d8800015 	stw	r2,0(sp)
 c001c40:	d8000115 	stw	zero,4(sp)
 c001c44:	01008c04 	movi	r4,560
 c001c48:	014006c4 	movi	r5,27
 c001c4c:	000d883a 	mov	r6,zero
 c001c50:	e1ffff17 	ldw	r7,-4(fp)
 c001c54:	c0023880 	call	c002388 <OutGraphicsCharFont1>
			break;
 c001c58:	00008806 	br	c001e7c <draw_button+0x7b0>

	case(automatic_pressed):
			rectangle(593,13,667,47,colour);
 c001c5c:	e0bfff17 	ldw	r2,-4(fp)
 c001c60:	d8800015 	stw	r2,0(sp)
 c001c64:	01009444 	movi	r4,593
 c001c68:	01400344 	movi	r5,13
 c001c6c:	0180a6c4 	movi	r6,667
 c001c70:	01c00bc4 	movi	r7,47
 c001c74:	c000d740 	call	c000d74 <rectangle>
			OutGraphicsCharFont1(618,27,BLACK,colour,'A',0);
 c001c78:	00801044 	movi	r2,65
 c001c7c:	d8800015 	stw	r2,0(sp)
 c001c80:	d8000115 	stw	zero,4(sp)
 c001c84:	01009a84 	movi	r4,618
 c001c88:	014006c4 	movi	r5,27
 c001c8c:	000d883a 	mov	r6,zero
 c001c90:	e1ffff17 	ldw	r7,-4(fp)
 c001c94:	c0023880 	call	c002388 <OutGraphicsCharFont1>
			OutGraphicsCharFont1(624,27,BLACK,colour,'U',0);
 c001c98:	00801544 	movi	r2,85
 c001c9c:	d8800015 	stw	r2,0(sp)
 c001ca0:	d8000115 	stw	zero,4(sp)
 c001ca4:	01009c04 	movi	r4,624
 c001ca8:	014006c4 	movi	r5,27
 c001cac:	000d883a 	mov	r6,zero
 c001cb0:	e1ffff17 	ldw	r7,-4(fp)
 c001cb4:	c0023880 	call	c002388 <OutGraphicsCharFont1>
			OutGraphicsCharFont1(632,27,BLACK,colour,'T',0);
 c001cb8:	00801504 	movi	r2,84
 c001cbc:	d8800015 	stw	r2,0(sp)
 c001cc0:	d8000115 	stw	zero,4(sp)
 c001cc4:	01009e04 	movi	r4,632
 c001cc8:	014006c4 	movi	r5,27
 c001ccc:	000d883a 	mov	r6,zero
 c001cd0:	e1ffff17 	ldw	r7,-4(fp)
 c001cd4:	c0023880 	call	c002388 <OutGraphicsCharFont1>
			OutGraphicsCharFont1(640,27,BLACK,colour,'O',0);
 c001cd8:	008013c4 	movi	r2,79
 c001cdc:	d8800015 	stw	r2,0(sp)
 c001ce0:	d8000115 	stw	zero,4(sp)
 c001ce4:	0100a004 	movi	r4,640
 c001ce8:	014006c4 	movi	r5,27
 c001cec:	000d883a 	mov	r6,zero
 c001cf0:	e1ffff17 	ldw	r7,-4(fp)
 c001cf4:	c0023880 	call	c002388 <OutGraphicsCharFont1>
			break;
 c001cf8:	00006006 	br	c001e7c <draw_button+0x7b0>

	case(security_pressed):
			rectangle(683,13,757,47,colour);
 c001cfc:	e0bfff17 	ldw	r2,-4(fp)
 c001d00:	d8800015 	stw	r2,0(sp)
 c001d04:	0100aac4 	movi	r4,683
 c001d08:	01400344 	movi	r5,13
 c001d0c:	0180bd44 	movi	r6,757
 c001d10:	01c00bc4 	movi	r7,47
 c001d14:	c000d740 	call	c000d74 <rectangle>
			OutGraphicsCharFont1(692,27,BLACK,colour,'S',0);
 c001d18:	008014c4 	movi	r2,83
 c001d1c:	d8800015 	stw	r2,0(sp)
 c001d20:	d8000115 	stw	zero,4(sp)
 c001d24:	0100ad04 	movi	r4,692
 c001d28:	014006c4 	movi	r5,27
 c001d2c:	000d883a 	mov	r6,zero
 c001d30:	e1ffff17 	ldw	r7,-4(fp)
 c001d34:	c0023880 	call	c002388 <OutGraphicsCharFont1>
			OutGraphicsCharFont1(700,27,BLACK,colour,'E',0);
 c001d38:	00801144 	movi	r2,69
 c001d3c:	d8800015 	stw	r2,0(sp)
 c001d40:	d8000115 	stw	zero,4(sp)
 c001d44:	0100af04 	movi	r4,700
 c001d48:	014006c4 	movi	r5,27
 c001d4c:	000d883a 	mov	r6,zero
 c001d50:	e1ffff17 	ldw	r7,-4(fp)
 c001d54:	c0023880 	call	c002388 <OutGraphicsCharFont1>
			OutGraphicsCharFont1(708,27,BLACK,colour,'C',0);
 c001d58:	008010c4 	movi	r2,67
 c001d5c:	d8800015 	stw	r2,0(sp)
 c001d60:	d8000115 	stw	zero,4(sp)
 c001d64:	0100b104 	movi	r4,708
 c001d68:	014006c4 	movi	r5,27
 c001d6c:	000d883a 	mov	r6,zero
 c001d70:	e1ffff17 	ldw	r7,-4(fp)
 c001d74:	c0023880 	call	c002388 <OutGraphicsCharFont1>
			OutGraphicsCharFont1(716,27,BLACK,colour,'U',0);
 c001d78:	00801544 	movi	r2,85
 c001d7c:	d8800015 	stw	r2,0(sp)
 c001d80:	d8000115 	stw	zero,4(sp)
 c001d84:	0100b304 	movi	r4,716
 c001d88:	014006c4 	movi	r5,27
 c001d8c:	000d883a 	mov	r6,zero
 c001d90:	e1ffff17 	ldw	r7,-4(fp)
 c001d94:	c0023880 	call	c002388 <OutGraphicsCharFont1>
			OutGraphicsCharFont1(724,27,BLACK,colour,'R',0);
 c001d98:	00801484 	movi	r2,82
 c001d9c:	d8800015 	stw	r2,0(sp)
 c001da0:	d8000115 	stw	zero,4(sp)
 c001da4:	0100b504 	movi	r4,724
 c001da8:	014006c4 	movi	r5,27
 c001dac:	000d883a 	mov	r6,zero
 c001db0:	e1ffff17 	ldw	r7,-4(fp)
 c001db4:	c0023880 	call	c002388 <OutGraphicsCharFont1>
			OutGraphicsCharFont1(732,27,BLACK,colour,'I',0);
 c001db8:	00801244 	movi	r2,73
 c001dbc:	d8800015 	stw	r2,0(sp)
 c001dc0:	d8000115 	stw	zero,4(sp)
 c001dc4:	0100b704 	movi	r4,732
 c001dc8:	014006c4 	movi	r5,27
 c001dcc:	000d883a 	mov	r6,zero
 c001dd0:	e1ffff17 	ldw	r7,-4(fp)
 c001dd4:	c0023880 	call	c002388 <OutGraphicsCharFont1>
			OutGraphicsCharFont1(740,27,BLACK,colour,'T',0);
 c001dd8:	00801504 	movi	r2,84
 c001ddc:	d8800015 	stw	r2,0(sp)
 c001de0:	d8000115 	stw	zero,4(sp)
 c001de4:	0100b904 	movi	r4,740
 c001de8:	014006c4 	movi	r5,27
 c001dec:	000d883a 	mov	r6,zero
 c001df0:	e1ffff17 	ldw	r7,-4(fp)
 c001df4:	c0023880 	call	c002388 <OutGraphicsCharFont1>
			OutGraphicsCharFont1(748,27,BLACK,colour,'Y',0);
 c001df8:	00801644 	movi	r2,89
 c001dfc:	d8800015 	stw	r2,0(sp)
 c001e00:	d8000115 	stw	zero,4(sp)
 c001e04:	0100bb04 	movi	r4,748
 c001e08:	014006c4 	movi	r5,27
 c001e0c:	000d883a 	mov	r6,zero
 c001e10:	e1ffff17 	ldw	r7,-4(fp)
 c001e14:	c0023880 	call	c002388 <OutGraphicsCharFont1>
			break;
 c001e18:	00001806 	br	c001e7c <draw_button+0x7b0>

	case(up_pressed):
		up_triangle(UARROW_X1 + 12,UARROW_Y1-6,ARROW_LENGTH - 24,colour);
 c001e1c:	01005a84 	movi	r4,362
 c001e20:	01400b04 	movi	r5,44
 c001e24:	01801304 	movi	r6,76
 c001e28:	e1ffff17 	ldw	r7,-4(fp)
 c001e2c:	c0012080 	call	c001208 <up_triangle>
		break;
 c001e30:	00001206 	br	c001e7c <draw_button+0x7b0>

	case(down_pressed):
		down_triangle(DARROW_X1 + 12,DARROW_Y1+6,ARROW_LENGTH - 24,colour);
 c001e34:	01005a84 	movi	r4,362
 c001e38:	01406d04 	movi	r5,436
 c001e3c:	01801304 	movi	r6,76
 c001e40:	e1ffff17 	ldw	r7,-4(fp)
 c001e44:	c0010b00 	call	c0010b0 <down_triangle>
		break;
 c001e48:	00000c06 	br	c001e7c <draw_button+0x7b0>

	case(left_pressed):
		left_triangle(LARROW_X1 - 6,LARROW_Y1+12,ARROW_LENGTH - 24,colour);
 c001e4c:	01000b04 	movi	r4,44
 c001e50:	01403284 	movi	r5,202
 c001e54:	01801304 	movi	r6,76
 c001e58:	e1ffff17 	ldw	r7,-4(fp)
 c001e5c:	c000f580 	call	c000f58 <left_triangle>
		break;
 c001e60:	00000606 	br	c001e7c <draw_button+0x7b0>

	case(right_pressed):
		right_triangle(RARROW_X1 + 6,RARROW_Y1+12,ARROW_LENGTH - 24,colour);
 c001e64:	0100bd04 	movi	r4,756
 c001e68:	01403284 	movi	r5,202
 c001e6c:	01801304 	movi	r6,76
 c001e70:	e1ffff17 	ldw	r7,-4(fp)
 c001e74:	c000e000 	call	c000e00 <right_triangle>
		break;
 c001e78:	0001883a 	nop
	}
}
 c001e7c:	e037883a 	mov	sp,fp
 c001e80:	dfc00117 	ldw	ra,4(sp)
 c001e84:	df000017 	ldw	fp,0(sp)
 c001e88:	dec00204 	addi	sp,sp,8
 c001e8c:	f800283a 	ret

0c001e90 <push_pixel>:
* simple stack based around an array
* Used for FILL algorithm
******************************************************************************************************************************/

int push_pixel(XYPixel p1)
{
 c001e90:	defffd04 	addi	sp,sp,-12
 c001e94:	df000215 	stw	fp,8(sp)
 c001e98:	df000204 	addi	fp,sp,8
 c001e9c:	e13ffe15 	stw	r4,-8(fp)
 c001ea0:	e17fff15 	stw	r5,-4(fp)
    if(Next <= &XYStack[1000]) {
 c001ea4:	d0e00117 	ldw	r3,-32764(gp)
 c001ea8:	008302f4 	movhi	r2,3083
 c001eac:	10a00a04 	addi	r2,r2,-32728
 c001eb0:	10c00936 	bltu	r2,r3,c001ed8 <push_pixel+0x48>
        *Next++ = p1;
 c001eb4:	d0a00117 	ldw	r2,-32764(gp)
 c001eb8:	10c00204 	addi	r3,r2,8
 c001ebc:	d0e00115 	stw	r3,-32764(gp)
 c001ec0:	e0fffe17 	ldw	r3,-8(fp)
 c001ec4:	10c00015 	stw	r3,0(r2)
 c001ec8:	e0ffff17 	ldw	r3,-4(fp)
 c001ecc:	10c00115 	stw	r3,4(r2)
        return 0 ;
 c001ed0:	0005883a 	mov	r2,zero
 c001ed4:	00000106 	br	c001edc <push_pixel+0x4c>
    }
    else
        return -1 ;
 c001ed8:	00bfffc4 	movi	r2,-1
}
 c001edc:	e037883a 	mov	sp,fp
 c001ee0:	df000017 	ldw	fp,0(sp)
 c001ee4:	dec00104 	addi	sp,sp,4
 c001ee8:	f800283a 	ret

0c001eec <pop_pixel>:

int pop_pixel(XYPixel *theXYPixel)
{
 c001eec:	defffe04 	addi	sp,sp,-8
 c001ef0:	df000115 	stw	fp,4(sp)
 c001ef4:	df000104 	addi	fp,sp,4
 c001ef8:	e13fff15 	stw	r4,-4(fp)
    if(Next >= XYStack) {
 c001efc:	d0e00117 	ldw	r3,-32764(gp)
 c001f00:	008302b4 	movhi	r2,3082
 c001f04:	10983a04 	addi	r2,r2,24808
 c001f08:	18800b36 	bltu	r3,r2,c001f38 <pop_pixel+0x4c>
        *theXYPixel = *(--Next);
 c001f0c:	d0a00117 	ldw	r2,-32764(gp)
 c001f10:	10bffe04 	addi	r2,r2,-8
 c001f14:	d0a00115 	stw	r2,-32764(gp)
 c001f18:	d0e00117 	ldw	r3,-32764(gp)
 c001f1c:	e0bfff17 	ldw	r2,-4(fp)
 c001f20:	19000017 	ldw	r4,0(r3)
 c001f24:	11000015 	stw	r4,0(r2)
 c001f28:	18c00117 	ldw	r3,4(r3)
 c001f2c:	10c00115 	stw	r3,4(r2)
        return 0 ;
 c001f30:	0005883a 	mov	r2,zero
 c001f34:	00000106 	br	c001f3c <pop_pixel+0x50>
    }
    else
        return -1 ;
 c001f38:	00bfffc4 	movi	r2,-1
}
 c001f3c:	e037883a 	mov	sp,fp
 c001f40:	df000017 	ldw	fp,0(sp)
 c001f44:	dec00104 	addi	sp,sp,4
 c001f48:	f800283a 	ret

0c001f4c <is_stack_empty>:

int is_stack_empty(void)
{
 c001f4c:	deffff04 	addi	sp,sp,-4
 c001f50:	df000015 	stw	fp,0(sp)
 c001f54:	d839883a 	mov	fp,sp
    if(Next == XYStack)
 c001f58:	d0e00117 	ldw	r3,-32764(gp)
 c001f5c:	008302b4 	movhi	r2,3082
 c001f60:	10983a04 	addi	r2,r2,24808
 c001f64:	1880021e 	bne	r3,r2,c001f70 <is_stack_empty+0x24>
        return 1 ;
 c001f68:	00800044 	movi	r2,1
 c001f6c:	00000106 	br	c001f74 <is_stack_empty+0x28>
    else
        return 0 ;
 c001f70:	0005883a 	mov	r2,zero
}
 c001f74:	e037883a 	mov	sp,fp
 c001f78:	df000017 	ldw	fp,0(sp)
 c001f7c:	dec00104 	addi	sp,sp,4
 c001f80:	f800283a 	ret

0c001f84 <fill>:
/********************************************************************************************
** fill Algorithm
** Taken from Procedural Elements of Computer Graphics: David Rogers
********************************************************************************************/
void fill(int _x, int _y, int _FillColour, int _BoundaryColour)
{
 c001f84:	deffed04 	addi	sp,sp,-76
 c001f88:	dfc01215 	stw	ra,72(sp)
 c001f8c:	df001115 	stw	fp,68(sp)
 c001f90:	dd001015 	stw	r20,64(sp)
 c001f94:	dcc00f15 	stw	r19,60(sp)
 c001f98:	dc800e15 	stw	r18,56(sp)
 c001f9c:	dc400d15 	stw	r17,52(sp)
 c001fa0:	dc000c15 	stw	r16,48(sp)
 c001fa4:	df001104 	addi	fp,sp,68
 c001fa8:	e13ff715 	stw	r4,-36(fp)
 c001fac:	e17ff815 	stw	r5,-32(fp)
 c001fb0:	e1bff915 	stw	r6,-28(fp)
 c001fb4:	e1fffa15 	stw	r7,-24(fp)
    register int     x, y ;
    register int     BoundaryColour = _BoundaryColour;
 c001fb8:	e4bffa17 	ldw	r18,-24(fp)
    register int 	 PixelColour, FillColour = _FillColour ;
 c001fbc:	e53ff917 	ldw	r20,-28(fp)

    int     XRight, XLeft ;
    int     SaveX, SaveY ;      		// temp variable
    XYPixel aPoint, aPoint1 ;           // temp var

    Next = XYStack ;                    // initialise to start of stack
 c001fc0:	008302b4 	movhi	r2,3082
 c001fc4:	10983a04 	addi	r2,r2,24808
 c001fc8:	d0a00115 	stw	r2,-32764(gp)
    aPoint.x = _x ;
 c001fcc:	e0bff717 	ldw	r2,-36(fp)
 c001fd0:	e0bff315 	stw	r2,-52(fp)
    aPoint.y = _y ;
 c001fd4:	e0bff817 	ldw	r2,-32(fp)
 c001fd8:	e0bff415 	stw	r2,-48(fp)

    push_pixel(aPoint) ;                   // push the seed
 c001fdc:	e13ff317 	ldw	r4,-52(fp)
 c001fe0:	e17ff417 	ldw	r5,-48(fp)
 c001fe4:	c001e900 	call	c001e90 <push_pixel>

    while(!is_stack_empty())                 // keep going until no more items on the stack
 c001fe8:	0000db06 	br	c002358 <fill+0x3d4>
    {
        pop_pixel(&aPoint) ;                 // get a point from the stack
 c001fec:	e0bff304 	addi	r2,fp,-52
 c001ff0:	1009883a 	mov	r4,r2
 c001ff4:	c001eec0 	call	c001eec <pop_pixel>
        x = aPoint.x ;
 c001ff8:	e43ff317 	ldw	r16,-52(fp)
        y = aPoint.y ;
 c001ffc:	e47ff417 	ldw	r17,-48(fp)
        write_a_pixel(x, y, FillColour);     // fill the point in the fill colour
 c002000:	8009883a 	mov	r4,r16
 c002004:	880b883a 	mov	r5,r17
 c002008:	a00d883a 	mov	r6,r20
 c00200c:	c0009ec0 	call	c0009ec <write_a_pixel>

        // fill the span to the right of the seed value
        SaveX = x++ ;                  // save the x coord of the the point we just filled and move one pixel right
 c002010:	8005883a 	mov	r2,r16
 c002014:	14000044 	addi	r16,r2,1
 c002018:	e0bfef15 	stw	r2,-68(fp)

        while((char)(read_a_pixel(x,y)) != (char)(BoundaryColour))							// if new pixel is not the boundary colour
 c00201c:	00000606 	br	c002038 <fill+0xb4>
            write_a_pixel(x++, y, FillColour);     											// fill it and keep moving right along a horizontal line
 c002020:	8005883a 	mov	r2,r16
 c002024:	14000044 	addi	r16,r2,1
 c002028:	1009883a 	mov	r4,r2
 c00202c:	880b883a 	mov	r5,r17
 c002030:	a00d883a 	mov	r6,r20
 c002034:	c0009ec0 	call	c0009ec <write_a_pixel>
        write_a_pixel(x, y, FillColour);     // fill the point in the fill colour

        // fill the span to the right of the seed value
        SaveX = x++ ;                  // save the x coord of the the point we just filled and move one pixel right

        while((char)(read_a_pixel(x,y)) != (char)(BoundaryColour))							// if new pixel is not the boundary colour
 c002038:	8009883a 	mov	r4,r16
 c00203c:	880b883a 	mov	r5,r17
 c002040:	c000a680 	call	c000a68 <read_a_pixel>
 c002044:	1007883a 	mov	r3,r2
 c002048:	9005883a 	mov	r2,r18
 c00204c:	18c03fcc 	andi	r3,r3,255
 c002050:	18c0201c 	xori	r3,r3,128
 c002054:	18ffe004 	addi	r3,r3,-128
 c002058:	10803fcc 	andi	r2,r2,255
 c00205c:	1080201c 	xori	r2,r2,128
 c002060:	10bfe004 	addi	r2,r2,-128
 c002064:	18bfee1e 	bne	r3,r2,c002020 <__alt_data_end+0xfc002020>
            write_a_pixel(x++, y, FillColour);     											// fill it and keep moving right along a horizontal line

        // must have found the boundary colour when moving right
        XRight = x - 1 ;		// save X coord of the last filled pixel on this line when moving right
 c002068:	80bfffc4 	addi	r2,r16,-1
 c00206c:	e0bff015 	stw	r2,-64(fp)
        x = SaveX ;				// get the original starting x back
 c002070:	e43fef17 	ldw	r16,-68(fp)

        // now fill the span to the left of the seed value

        --x ;
 c002074:	843fffc4 	addi	r16,r16,-1

        while((char)(read_a_pixel(x,y)) != (char)(BoundaryColour))						// if new pixel is not the boundary colour
 c002078:	00000606 	br	c002094 <fill+0x110>
            write_a_pixel(x--, y, FillColour);    											// fill it and keep moving left along a horizontal line
 c00207c:	8005883a 	mov	r2,r16
 c002080:	143fffc4 	addi	r16,r2,-1
 c002084:	1009883a 	mov	r4,r2
 c002088:	880b883a 	mov	r5,r17
 c00208c:	a00d883a 	mov	r6,r20
 c002090:	c0009ec0 	call	c0009ec <write_a_pixel>

        // now fill the span to the left of the seed value

        --x ;

        while((char)(read_a_pixel(x,y)) != (char)(BoundaryColour))						// if new pixel is not the boundary colour
 c002094:	8009883a 	mov	r4,r16
 c002098:	880b883a 	mov	r5,r17
 c00209c:	c000a680 	call	c000a68 <read_a_pixel>
 c0020a0:	1007883a 	mov	r3,r2
 c0020a4:	9005883a 	mov	r2,r18
 c0020a8:	18c03fcc 	andi	r3,r3,255
 c0020ac:	18c0201c 	xori	r3,r3,128
 c0020b0:	18ffe004 	addi	r3,r3,-128
 c0020b4:	10803fcc 	andi	r2,r2,255
 c0020b8:	1080201c 	xori	r2,r2,128
 c0020bc:	10bfe004 	addi	r2,r2,-128
 c0020c0:	18bfee1e 	bne	r3,r2,c00207c <__alt_data_end+0xfc00207c>
            write_a_pixel(x--, y, FillColour);    											// fill it and keep moving left along a horizontal line

        XLeft = x + 1 ;			// save X coord of the last filled pixel on this line when moving left
 c0020c4:	80800044 	addi	r2,r16,1
 c0020c8:	e0bff115 	stw	r2,-60(fp)
        x = SaveX ; 			// get original x coord for the seed back
 c0020cc:	e43fef17 	ldw	r16,-68(fp)
		///////////////////////////////////////////////////////////////////////////////////////////////////
        // check that the scan line below is neither a polygon boundary nor
        // has been previously completely filled
        //////////////////////////////////////////////////////////////////////////////////////////////////

        SaveY = y ;			// save the current y coordinate of the line we have just drawn
 c0020d0:	e47ff215 	stw	r17,-56(fp)
        x = XLeft ;			// starting at the left x
 c0020d4:	e43ff117 	ldw	r16,-60(fp)
        ++y ;				// move down one line
 c0020d8:	8c400044 	addi	r17,r17,1

		// starting from the left keep moving right looking at the pixel
        // until we find something that is neither filled nor boundary colour as it represents something on the line that may be a pixel to fill

        do {
        	PixelColour = read_a_pixel(x++,y) ;
 c0020dc:	8005883a 	mov	r2,r16
 c0020e0:	14000044 	addi	r16,r2,1
 c0020e4:	1009883a 	mov	r4,r2
 c0020e8:	880b883a 	mov	r5,r17
 c0020ec:	c000a680 	call	c000a68 <read_a_pixel>
 c0020f0:	1027883a 	mov	r19,r2
        } while(((char)(PixelColour) == (char)(BoundaryColour)) || ((char)(PixelColour) == (char)(FillColour)) );
 c0020f4:	9807883a 	mov	r3,r19
 c0020f8:	9005883a 	mov	r2,r18
 c0020fc:	18c03fcc 	andi	r3,r3,255
 c002100:	18c0201c 	xori	r3,r3,128
 c002104:	18ffe004 	addi	r3,r3,-128
 c002108:	10803fcc 	andi	r2,r2,255
 c00210c:	1080201c 	xori	r2,r2,128
 c002110:	10bfe004 	addi	r2,r2,-128
 c002114:	18bff126 	beq	r3,r2,c0020dc <__alt_data_end+0xfc0020dc>
 c002118:	9807883a 	mov	r3,r19
 c00211c:	a005883a 	mov	r2,r20
 c002120:	18c03fcc 	andi	r3,r3,255
 c002124:	18c0201c 	xori	r3,r3,128
 c002128:	18ffe004 	addi	r3,r3,-128
 c00212c:	10803fcc 	andi	r2,r2,255
 c002130:	1080201c 	xori	r2,r2,128
 c002134:	10bfe004 	addi	r2,r2,-128
 c002138:	18bfe826 	beq	r3,r2,c0020dc <__alt_data_end+0xfc0020dc>

         x-- ;
 c00213c:	843fffc4 	addi	r16,r16,-1

        // to get here we must have found something that needs filling i.e. the above loop found that the line below was not a complete boundary edge or filled
		// if we are still less than the previous right most X coord then it would be a new point that we need to seed
        while(x <= XRight)
 c002140:	00003006 	br	c002204 <fill+0x280>
        {
            // seed the scan line below
        	// if the pixel at x,y is not a boundary colour and less than extreme right

        	// skip over any pixels already filled
            while(((char)(read_a_pixel(x,y)) != (char)(BoundaryColour)) && (x <= XRight))
 c002144:	00000106 	br	c00214c <fill+0x1c8>
               ++x ;
 c002148:	84000044 	addi	r16,r16,1
        {
            // seed the scan line below
        	// if the pixel at x,y is not a boundary colour and less than extreme right

        	// skip over any pixels already filled
            while(((char)(read_a_pixel(x,y)) != (char)(BoundaryColour)) && (x <= XRight))
 c00214c:	8009883a 	mov	r4,r16
 c002150:	880b883a 	mov	r5,r17
 c002154:	c000a680 	call	c000a68 <read_a_pixel>
 c002158:	1007883a 	mov	r3,r2
 c00215c:	9005883a 	mov	r2,r18
 c002160:	18c03fcc 	andi	r3,r3,255
 c002164:	18c0201c 	xori	r3,r3,128
 c002168:	18ffe004 	addi	r3,r3,-128
 c00216c:	10803fcc 	andi	r2,r2,255
 c002170:	1080201c 	xori	r2,r2,128
 c002174:	10bfe004 	addi	r2,r2,-128
 c002178:	18800226 	beq	r3,r2,c002184 <fill+0x200>
 c00217c:	e0bff017 	ldw	r2,-64(fp)
 c002180:	143ff10e 	bge	r2,r16,c002148 <__alt_data_end+0xfc002148>
               ++x ;

            // push the  extreme right pixel onto the stack
            aPoint1.x = x - 1 ;
 c002184:	80bfffc4 	addi	r2,r16,-1
 c002188:	e0bff515 	stw	r2,-44(fp)
            aPoint1.y = y ;
 c00218c:	e47ff615 	stw	r17,-40(fp)
            push_pixel(aPoint1) ;
 c002190:	e13ff517 	ldw	r4,-44(fp)
 c002194:	e17ff617 	ldw	r5,-40(fp)
 c002198:	c001e900 	call	c001e90 <push_pixel>

            // continue checking in case the span is interrupted by another shape inside the one we are trying to fill

            ++x ;
 c00219c:	84000044 	addi	r16,r16,1

            // skip over anything that is filled or boundary (i.e. other shape) inside the one we are trying to fill
            do {
            	PixelColour = read_a_pixel(x++,y) ;
 c0021a0:	8005883a 	mov	r2,r16
 c0021a4:	14000044 	addi	r16,r2,1
 c0021a8:	1009883a 	mov	r4,r2
 c0021ac:	880b883a 	mov	r5,r17
 c0021b0:	c000a680 	call	c000a68 <read_a_pixel>
 c0021b4:	1027883a 	mov	r19,r2
            } while(((char)(PixelColour) == (char)(BoundaryColour)) || ((char)(PixelColour) == (char)(FillColour)) );
 c0021b8:	9807883a 	mov	r3,r19
 c0021bc:	9005883a 	mov	r2,r18
 c0021c0:	18c03fcc 	andi	r3,r3,255
 c0021c4:	18c0201c 	xori	r3,r3,128
 c0021c8:	18ffe004 	addi	r3,r3,-128
 c0021cc:	10803fcc 	andi	r2,r2,255
 c0021d0:	1080201c 	xori	r2,r2,128
 c0021d4:	10bfe004 	addi	r2,r2,-128
 c0021d8:	18bff126 	beq	r3,r2,c0021a0 <__alt_data_end+0xfc0021a0>
 c0021dc:	9807883a 	mov	r3,r19
 c0021e0:	a005883a 	mov	r2,r20
 c0021e4:	18c03fcc 	andi	r3,r3,255
 c0021e8:	18c0201c 	xori	r3,r3,128
 c0021ec:	18ffe004 	addi	r3,r3,-128
 c0021f0:	10803fcc 	andi	r2,r2,255
 c0021f4:	1080201c 	xori	r2,r2,128
 c0021f8:	10bfe004 	addi	r2,r2,-128
 c0021fc:	18bfe826 	beq	r3,r2,c0021a0 <__alt_data_end+0xfc0021a0>

             x-- ;
 c002200:	843fffc4 	addi	r16,r16,-1

         x-- ;

        // to get here we must have found something that needs filling i.e. the above loop found that the line below was not a complete boundary edge or filled
		// if we are still less than the previous right most X coord then it would be a new point that we need to seed
        while(x <= XRight)
 c002204:	e0bff017 	ldw	r2,-64(fp)
 c002208:	143fce0e 	bge	r2,r16,c002144 <__alt_data_end+0xfc002144>
            	PixelColour = read_a_pixel(x++,y) ;
            } while(((char)(PixelColour) == (char)(BoundaryColour)) || ((char)(PixelColour) == (char)(FillColour)) );

             x-- ;
        }
      	x = SaveX ;
 c00220c:	e43fef17 	ldw	r16,-68(fp)
       	y = SaveY ;
 c002210:	e47ff217 	ldw	r17,-56(fp)

	 ///////////////////////////////////////////////////////////////////////////////////////////////////
    // check that the scan line above is neither a polygon boundary nor
    // has been previously completely filled

        y = SaveY;
 c002214:	e47ff217 	ldw	r17,-56(fp)
        x = XLeft ;
 c002218:	e43ff117 	ldw	r16,-60(fp)
        --y ;
 c00221c:	8c7fffc4 	addi	r17,r17,-1

        do {
        	PixelColour = read_a_pixel(x++,y) ;
 c002220:	8005883a 	mov	r2,r16
 c002224:	14000044 	addi	r16,r2,1
 c002228:	1009883a 	mov	r4,r2
 c00222c:	880b883a 	mov	r5,r17
 c002230:	c000a680 	call	c000a68 <read_a_pixel>
 c002234:	1027883a 	mov	r19,r2
        } while(((char)(PixelColour) == (char)(BoundaryColour)) || ((char)(PixelColour) == (char)(FillColour)) );
 c002238:	9807883a 	mov	r3,r19
 c00223c:	9005883a 	mov	r2,r18
 c002240:	18c03fcc 	andi	r3,r3,255
 c002244:	18c0201c 	xori	r3,r3,128
 c002248:	18ffe004 	addi	r3,r3,-128
 c00224c:	10803fcc 	andi	r2,r2,255
 c002250:	1080201c 	xori	r2,r2,128
 c002254:	10bfe004 	addi	r2,r2,-128
 c002258:	18bff126 	beq	r3,r2,c002220 <__alt_data_end+0xfc002220>
 c00225c:	9807883a 	mov	r3,r19
 c002260:	a005883a 	mov	r2,r20
 c002264:	18c03fcc 	andi	r3,r3,255
 c002268:	18c0201c 	xori	r3,r3,128
 c00226c:	18ffe004 	addi	r3,r3,-128
 c002270:	10803fcc 	andi	r2,r2,255
 c002274:	1080201c 	xori	r2,r2,128
 c002278:	10bfe004 	addi	r2,r2,-128
 c00227c:	18bfe826 	beq	r3,r2,c002220 <__alt_data_end+0xfc002220>

         x-- ;
 c002280:	843fffc4 	addi	r16,r16,-1

        while(x <= XRight)		// if we have not reached the boundary
 c002284:	00003006 	br	c002348 <fill+0x3c4>
        {
            // seed the scan line below
            while(((char)(read_a_pixel(x,y)) != (char)(BoundaryColour)) && (x <= XRight))
 c002288:	00000106 	br	c002290 <fill+0x30c>
               ++x ;		// look for right most x inside the boudan
 c00228c:	84000044 	addi	r16,r16,1
         x-- ;

        while(x <= XRight)		// if we have not reached the boundary
        {
            // seed the scan line below
            while(((char)(read_a_pixel(x,y)) != (char)(BoundaryColour)) && (x <= XRight))
 c002290:	8009883a 	mov	r4,r16
 c002294:	880b883a 	mov	r5,r17
 c002298:	c000a680 	call	c000a68 <read_a_pixel>
 c00229c:	1007883a 	mov	r3,r2
 c0022a0:	9005883a 	mov	r2,r18
 c0022a4:	18c03fcc 	andi	r3,r3,255
 c0022a8:	18c0201c 	xori	r3,r3,128
 c0022ac:	18ffe004 	addi	r3,r3,-128
 c0022b0:	10803fcc 	andi	r2,r2,255
 c0022b4:	1080201c 	xori	r2,r2,128
 c0022b8:	10bfe004 	addi	r2,r2,-128
 c0022bc:	18800226 	beq	r3,r2,c0022c8 <fill+0x344>
 c0022c0:	e0bff017 	ldw	r2,-64(fp)
 c0022c4:	143ff10e 	bge	r2,r16,c00228c <__alt_data_end+0xfc00228c>
               ++x ;		// look for right most x inside the boudan

            // push the  extreme right pixel onto the stack
            aPoint1.x = x - 1 ;
 c0022c8:	80bfffc4 	addi	r2,r16,-1
 c0022cc:	e0bff515 	stw	r2,-44(fp)
            aPoint1.y = y ;
 c0022d0:	e47ff615 	stw	r17,-40(fp)
            push_pixel(aPoint1) ;
 c0022d4:	e13ff517 	ldw	r4,-44(fp)
 c0022d8:	e17ff617 	ldw	r5,-40(fp)
 c0022dc:	c001e900 	call	c001e90 <push_pixel>

            // continue checking in case the span is interrupted
            ++x ;
 c0022e0:	84000044 	addi	r16,r16,1

            do {
            	PixelColour = read_a_pixel(x++,y) ;
 c0022e4:	8005883a 	mov	r2,r16
 c0022e8:	14000044 	addi	r16,r2,1
 c0022ec:	1009883a 	mov	r4,r2
 c0022f0:	880b883a 	mov	r5,r17
 c0022f4:	c000a680 	call	c000a68 <read_a_pixel>
 c0022f8:	1027883a 	mov	r19,r2
            } while(((char)(PixelColour) == (char)(BoundaryColour)) || ((char)(PixelColour) == (char)(FillColour)) );
 c0022fc:	9807883a 	mov	r3,r19
 c002300:	9005883a 	mov	r2,r18
 c002304:	18c03fcc 	andi	r3,r3,255
 c002308:	18c0201c 	xori	r3,r3,128
 c00230c:	18ffe004 	addi	r3,r3,-128
 c002310:	10803fcc 	andi	r2,r2,255
 c002314:	1080201c 	xori	r2,r2,128
 c002318:	10bfe004 	addi	r2,r2,-128
 c00231c:	18bff126 	beq	r3,r2,c0022e4 <__alt_data_end+0xfc0022e4>
 c002320:	9807883a 	mov	r3,r19
 c002324:	a005883a 	mov	r2,r20
 c002328:	18c03fcc 	andi	r3,r3,255
 c00232c:	18c0201c 	xori	r3,r3,128
 c002330:	18ffe004 	addi	r3,r3,-128
 c002334:	10803fcc 	andi	r2,r2,255
 c002338:	1080201c 	xori	r2,r2,128
 c00233c:	10bfe004 	addi	r2,r2,-128
 c002340:	18bfe826 	beq	r3,r2,c0022e4 <__alt_data_end+0xfc0022e4>

             x-- ;
 c002344:	843fffc4 	addi	r16,r16,-1
        	PixelColour = read_a_pixel(x++,y) ;
        } while(((char)(PixelColour) == (char)(BoundaryColour)) || ((char)(PixelColour) == (char)(FillColour)) );

         x-- ;

        while(x <= XRight)		// if we have not reached the boundary
 c002348:	e0bff017 	ldw	r2,-64(fp)
 c00234c:	143fce0e 	bge	r2,r16,c002288 <__alt_data_end+0xfc002288>
            	PixelColour = read_a_pixel(x++,y) ;
            } while(((char)(PixelColour) == (char)(BoundaryColour)) || ((char)(PixelColour) == (char)(FillColour)) );

             x-- ;
        }
       	x = SaveX ;
 c002350:	e43fef17 	ldw	r16,-68(fp)
       	y = SaveY ;
 c002354:	e47ff217 	ldw	r17,-56(fp)
    aPoint.x = _x ;
    aPoint.y = _y ;

    push_pixel(aPoint) ;                   // push the seed

    while(!is_stack_empty())                 // keep going until no more items on the stack
 c002358:	c001f4c0 	call	c001f4c <is_stack_empty>
 c00235c:	103f2326 	beq	r2,zero,c001fec <__alt_data_end+0xfc001fec>
             x-- ;
        }
       	x = SaveX ;
       	y = SaveY ;
    }
}
 c002360:	e6fffb04 	addi	sp,fp,-20
 c002364:	dfc00617 	ldw	ra,24(sp)
 c002368:	df000517 	ldw	fp,20(sp)
 c00236c:	dd000417 	ldw	r20,16(sp)
 c002370:	dcc00317 	ldw	r19,12(sp)
 c002374:	dc800217 	ldw	r18,8(sp)
 c002378:	dc400117 	ldw	r17,4(sp)
 c00237c:	dc000017 	ldw	r16,0(sp)
 c002380:	dec00704 	addi	sp,sp,28
 c002384:	f800283a 	ret

0c002388 <OutGraphicsCharFont1>:
** e.g. writing a space character with Erase set to true will set all pixels in the
** character to the background colour
**
*************************************************************************************************/
void OutGraphicsCharFont1(int x, int y, int fontcolour, int backgroundcolour, int c, int Erase)
{
 c002388:	defff204 	addi	sp,sp,-56
 c00238c:	dfc00d15 	stw	ra,52(sp)
 c002390:	df000c15 	stw	fp,48(sp)
 c002394:	ddc00b15 	stw	r23,44(sp)
 c002398:	dd800a15 	stw	r22,40(sp)
 c00239c:	dd400915 	stw	r21,36(sp)
 c0023a0:	dd000815 	stw	r20,32(sp)
 c0023a4:	dcc00715 	stw	r19,28(sp)
 c0023a8:	dc800615 	stw	r18,24(sp)
 c0023ac:	dc400515 	stw	r17,20(sp)
 c0023b0:	dc000415 	stw	r16,16(sp)
 c0023b4:	df000c04 	addi	fp,sp,48
 c0023b8:	e13ff415 	stw	r4,-48(fp)
 c0023bc:	e17ff515 	stw	r5,-44(fp)
 c0023c0:	e1bff615 	stw	r6,-40(fp)
 c0023c4:	e1fff715 	stw	r7,-36(fp)
	// using register variables (as opposed to stack based ones) may make execution faster
	// depends on compiler and CPU
	register int row, column, theX = x, theY = y ;
 c0023c8:	e53ff417 	ldw	r20,-48(fp)
 c0023cc:	e57ff517 	ldw	r21,-44(fp)
	register int pixels ;
	register char theColour = fontcolour ;
 c0023d0:	e0bff617 	ldw	r2,-40(fp)
 c0023d4:	102f883a 	mov	r23,r2
	register int BitMask, theC = c ;
 c0023d8:	e4400217 	ldw	r17,8(fp)
	// if x,y coord off edge of screen don't bother
	// XRES and YRES are #defined to be 800 and 480 respectively
	 if(((short)(x) > (short)(XRES-1)) || ((short)(y) > (short)(YRES-1)))
 c0023dc:	e0bff417 	ldw	r2,-48(fp)
 c0023e0:	10bfffcc 	andi	r2,r2,65535
 c0023e4:	10a0001c 	xori	r2,r2,32768
 c0023e8:	10a00004 	addi	r2,r2,-32768
 c0023ec:	1080c808 	cmpgei	r2,r2,800
 c0023f0:	1000061e 	bne	r2,zero,c00240c <OutGraphicsCharFont1+0x84>
 c0023f4:	e0bff517 	ldw	r2,-44(fp)
 c0023f8:	10bfffcc 	andi	r2,r2,65535
 c0023fc:	10a0001c 	xori	r2,r2,32768
 c002400:	10a00004 	addi	r2,r2,-32768
 c002404:	10807810 	cmplti	r2,r2,480
 c002408:	1000011e 	bne	r2,zero,c002410 <OutGraphicsCharFont1+0x88>
	 return ;
 c00240c:	00003c06 	br	c002500 <OutGraphicsCharFont1+0x178>
	// if printable character subtract hex 20
	if(((short)(theC) >= (short)(' ')) && ((short)(theC) <= (short)('~'))) {
 c002410:	8805883a 	mov	r2,r17
 c002414:	10bfffcc 	andi	r2,r2,65535
 c002418:	10a0001c 	xori	r2,r2,32768
 c00241c:	10a00004 	addi	r2,r2,-32768
 c002420:	10800810 	cmplti	r2,r2,32
 c002424:	1000361e 	bne	r2,zero,c002500 <OutGraphicsCharFont1+0x178>
 c002428:	8805883a 	mov	r2,r17
 c00242c:	10bfffcc 	andi	r2,r2,65535
 c002430:	10a0001c 	xori	r2,r2,32768
 c002434:	10a00004 	addi	r2,r2,-32768
 c002438:	10801fc8 	cmpgei	r2,r2,127
 c00243c:	1000301e 	bne	r2,zero,c002500 <OutGraphicsCharFont1+0x178>
		theC = theC - 0x20 ;
 c002440:	8c7ff804 	addi	r17,r17,-32
		for(row = 0; (char)(row) < (char)(7); row ++) {
 c002444:	0021883a 	mov	r16,zero
 c002448:	00002706 	br	c0024e8 <OutGraphicsCharFont1+0x160>
			// get the bit pattern for row 0 of the character from the software font
			pixels = Font5x7[theC][row] ;
 c00244c:	00830074 	movhi	r2,3073
 c002450:	109ef004 	addi	r2,r2,31680
 c002454:	88c001e4 	muli	r3,r17,7
 c002458:	1c07883a 	add	r3,r3,r16
 c00245c:	10c5883a 	add	r2,r2,r3
 c002460:	10800003 	ldbu	r2,0(r2)
 c002464:	15803fcc 	andi	r22,r2,255
			BitMask = 16 ;
 c002468:	04c00404 	movi	r19,16
			for(column = 0; (char)(column) < (char)(5); column ++) {
 c00246c:	0025883a 	mov	r18,zero
 c002470:	00001606 	br	c0024cc <OutGraphicsCharFont1+0x144>
			// if a pixel in the character display it
			if((pixels & BitMask))
 c002474:	b4c4703a 	and	r2,r22,r19
 c002478:	10000926 	beq	r2,zero,c0024a0 <OutGraphicsCharFont1+0x118>
			write_a_pixel(theX+column, theY+row, theColour) ;
 c00247c:	a489883a 	add	r4,r20,r18
 c002480:	ac07883a 	add	r3,r21,r16
 c002484:	b8803fcc 	andi	r2,r23,255
 c002488:	1080201c 	xori	r2,r2,128
 c00248c:	10bfe004 	addi	r2,r2,-128
 c002490:	180b883a 	mov	r5,r3
 c002494:	100d883a 	mov	r6,r2
 c002498:	c0009ec0 	call	c0009ec <write_a_pixel>
 c00249c:	00000906 	br	c0024c4 <OutGraphicsCharFont1+0x13c>
			else {
				if(Erase == 1)
 c0024a0:	e0800317 	ldw	r2,12(fp)
 c0024a4:	10800058 	cmpnei	r2,r2,1
 c0024a8:	1000061e 	bne	r2,zero,c0024c4 <OutGraphicsCharFont1+0x13c>
				// if pixel is part of background (not part of character)
				// erase the background to value of variable BackGroundColour
				write_a_pixel(theX+column, theY+row, backgroundcolour) ;
 c0024ac:	a487883a 	add	r3,r20,r18
 c0024b0:	ac05883a 	add	r2,r21,r16
 c0024b4:	1809883a 	mov	r4,r3
 c0024b8:	100b883a 	mov	r5,r2
 c0024bc:	e1bff717 	ldw	r6,-36(fp)
 c0024c0:	c0009ec0 	call	c0009ec <write_a_pixel>
			}
			BitMask = BitMask >> 1 ;
 c0024c4:	9827d07a 	srai	r19,r19,1
		theC = theC - 0x20 ;
		for(row = 0; (char)(row) < (char)(7); row ++) {
			// get the bit pattern for row 0 of the character from the software font
			pixels = Font5x7[theC][row] ;
			BitMask = 16 ;
			for(column = 0; (char)(column) < (char)(5); column ++) {
 c0024c8:	94800044 	addi	r18,r18,1
 c0024cc:	9005883a 	mov	r2,r18
 c0024d0:	10803fcc 	andi	r2,r2,255
 c0024d4:	1080201c 	xori	r2,r2,128
 c0024d8:	10bfe004 	addi	r2,r2,-128
 c0024dc:	10800150 	cmplti	r2,r2,5
 c0024e0:	103fe41e 	bne	r2,zero,c002474 <__alt_data_end+0xfc002474>
	 if(((short)(x) > (short)(XRES-1)) || ((short)(y) > (short)(YRES-1)))
	 return ;
	// if printable character subtract hex 20
	if(((short)(theC) >= (short)(' ')) && ((short)(theC) <= (short)('~'))) {
		theC = theC - 0x20 ;
		for(row = 0; (char)(row) < (char)(7); row ++) {
 c0024e4:	84000044 	addi	r16,r16,1
 c0024e8:	8005883a 	mov	r2,r16
 c0024ec:	10803fcc 	andi	r2,r2,255
 c0024f0:	1080201c 	xori	r2,r2,128
 c0024f4:	10bfe004 	addi	r2,r2,-128
 c0024f8:	108001d0 	cmplti	r2,r2,7
 c0024fc:	103fd31e 	bne	r2,zero,c00244c <__alt_data_end+0xfc00244c>
			}
			BitMask = BitMask >> 1 ;
		}
		}
	}
}
 c002500:	e6fff804 	addi	sp,fp,-32
 c002504:	dfc00917 	ldw	ra,36(sp)
 c002508:	df000817 	ldw	fp,32(sp)
 c00250c:	ddc00717 	ldw	r23,28(sp)
 c002510:	dd800617 	ldw	r22,24(sp)
 c002514:	dd400517 	ldw	r21,20(sp)
 c002518:	dd000417 	ldw	r20,16(sp)
 c00251c:	dcc00317 	ldw	r19,12(sp)
 c002520:	dc800217 	ldw	r18,8(sp)
 c002524:	dc400117 	ldw	r17,4(sp)
 c002528:	dc000017 	ldw	r16,0(sp)
 c00252c:	dec00a04 	addi	sp,sp,40
 c002530:	f800283a 	ret

0c002534 <OutGraphicsCharFont2a>:
** OutGraphicsCharFont2(100,100, RED, 'A', TRUE, FALSE, 1, 1) ;	// display upper case 'A' in RED at coords 100,100, erase background
** no scroll, scale x,y= 1,1
**
******************************************************************************************************************************/
void OutGraphicsCharFont2a(int x, int y, int colour, int backgroundcolour, int c, int Erase)
{
 c002534:	defff004 	addi	sp,sp,-64
 c002538:	dfc00f15 	stw	ra,60(sp)
 c00253c:	df000e15 	stw	fp,56(sp)
 c002540:	ddc00d15 	stw	r23,52(sp)
 c002544:	dd800c15 	stw	r22,48(sp)
 c002548:	dd400b15 	stw	r21,44(sp)
 c00254c:	dd000a15 	stw	r20,40(sp)
 c002550:	dcc00915 	stw	r19,36(sp)
 c002554:	dc800815 	stw	r18,32(sp)
 c002558:	dc400715 	stw	r17,28(sp)
 c00255c:	dc000615 	stw	r16,24(sp)
 c002560:	df000e04 	addi	fp,sp,56
 c002564:	e13ff215 	stw	r4,-56(fp)
 c002568:	e17ff315 	stw	r5,-52(fp)
 c00256c:	e1bff415 	stw	r6,-48(fp)
 c002570:	e1fff515 	stw	r7,-44(fp)
	register int 	row,
					column,
					theX = x,
 c002574:	e53ff217 	ldw	r20,-56(fp)
					theY = y ;
 c002578:	e57ff317 	ldw	r21,-52(fp)
	register int 	pixels ;
	register char 	theColour = colour  ;
 c00257c:	e0bff417 	ldw	r2,-48(fp)
 c002580:	e0bff605 	stb	r2,-40(fp)
	register int 	BitMask,
					theCharacter = c,
 c002584:	e4800217 	ldw	r18,8(fp)
					j,
					theRow, theColumn;


    if(((short)(x) > (short)(XRES-1)) || ((short)(y) > (short)(YRES-1)))  // if start off edge of screen don't bother
 c002588:	e0bff217 	ldw	r2,-56(fp)
 c00258c:	10bfffcc 	andi	r2,r2,65535
 c002590:	10a0001c 	xori	r2,r2,32768
 c002594:	10a00004 	addi	r2,r2,-32768
 c002598:	1080c808 	cmpgei	r2,r2,800
 c00259c:	1000061e 	bne	r2,zero,c0025b8 <OutGraphicsCharFont2a+0x84>
 c0025a0:	e0bff317 	ldw	r2,-52(fp)
 c0025a4:	10bfffcc 	andi	r2,r2,65535
 c0025a8:	10a0001c 	xori	r2,r2,32768
 c0025ac:	10a00004 	addi	r2,r2,-32768
 c0025b0:	10807810 	cmplti	r2,r2,480
 c0025b4:	1000011e 	bne	r2,zero,c0025bc <OutGraphicsCharFont2a+0x88>
        return ;
 c0025b8:	00003506 	br	c002690 <OutGraphicsCharFont2a+0x15c>

	if(((short)(theCharacter) >= (short)(' ')) && ((short)(theCharacter) <= (short)('~'))) {			// if printable character
 c0025bc:	9005883a 	mov	r2,r18
 c0025c0:	10bfffcc 	andi	r2,r2,65535
 c0025c4:	10a0001c 	xori	r2,r2,32768
 c0025c8:	10a00004 	addi	r2,r2,-32768
 c0025cc:	10800810 	cmplti	r2,r2,32
 c0025d0:	10002f1e 	bne	r2,zero,c002690 <OutGraphicsCharFont2a+0x15c>
 c0025d4:	9005883a 	mov	r2,r18
 c0025d8:	10bfffcc 	andi	r2,r2,65535
 c0025dc:	10a0001c 	xori	r2,r2,32768
 c0025e0:	10a00004 	addi	r2,r2,-32768
 c0025e4:	10801fc8 	cmpgei	r2,r2,127
 c0025e8:	1000291e 	bne	r2,zero,c002690 <OutGraphicsCharFont2a+0x15c>
		theCharacter -= 0x20 ;																			// subtract hex 20 to get index of first printable character (the space character)
 c0025ec:	94bff804 	addi	r18,r18,-32
		theRow = FONT2_YPIXELS;
 c0025f0:	05800384 	movi	r22,14
		theColumn = FONT2_XPIXELS;
 c0025f4:	05c00284 	movi	r23,10

		for(row = 0; row < theRow ; row ++)	{
 c0025f8:	0021883a 	mov	r16,zero
 c0025fc:	00002306 	br	c00268c <OutGraphicsCharFont2a+0x158>
			pixels = Font10x14[theCharacter][row] ;		     								// get the pixels for row 0 of the character to be displayed
 c002600:	00830074 	movhi	r2,3073
 c002604:	109f9684 	addi	r2,r2,32346
 c002608:	90c003a4 	muli	r3,r18,14
 c00260c:	1c07883a 	add	r3,r3,r16
 c002610:	18c7883a 	add	r3,r3,r3
 c002614:	10c5883a 	add	r2,r2,r3
 c002618:	1080000b 	ldhu	r2,0(r2)
 c00261c:	10bfffcc 	andi	r2,r2,65535
 c002620:	e0bff715 	stw	r2,-36(fp)
			BitMask = 512 ;							   											// set of hex 200 i.e. bit 7-0 = 0010 0000 0000
 c002624:	04c08004 	movi	r19,512
			for(column = 0; column < theColumn;   )  	{
 c002628:	0023883a 	mov	r17,zero
 c00262c:	00001506 	br	c002684 <OutGraphicsCharFont2a+0x150>
				if((pixels & BitMask))														// if valid pixel, then write it
 c002630:	e0fff717 	ldw	r3,-36(fp)
 c002634:	1cc4703a 	and	r2,r3,r19
 c002638:	10000726 	beq	r2,zero,c002658 <OutGraphicsCharFont2a+0x124>
					write_a_pixel(theX+column, theY+row, theColour) ;
 c00263c:	a449883a 	add	r4,r20,r17
 c002640:	ac07883a 	add	r3,r21,r16
 c002644:	e0bff607 	ldb	r2,-40(fp)
 c002648:	180b883a 	mov	r5,r3
 c00264c:	100d883a 	mov	r6,r2
 c002650:	c0009ec0 	call	c0009ec <write_a_pixel>
 c002654:	00000906 	br	c00267c <OutGraphicsCharFont2a+0x148>
				else {																		// if not a valid pixel, do we erase or leave it along (no erase)
					if(Erase == 1)
 c002658:	e0800317 	ldw	r2,12(fp)
 c00265c:	10800058 	cmpnei	r2,r2,1
 c002660:	1000061e 	bne	r2,zero,c00267c <OutGraphicsCharFont2a+0x148>
						write_a_pixel(theX+column, theY+row, backgroundcolour) ;
 c002664:	a447883a 	add	r3,r20,r17
 c002668:	ac05883a 	add	r2,r21,r16
 c00266c:	1809883a 	mov	r4,r3
 c002670:	100b883a 	mov	r5,r2
 c002674:	e1bff517 	ldw	r6,-44(fp)
 c002678:	c0009ec0 	call	c0009ec <write_a_pixel>
					// else leave it alone
				}
					column ++ ;
 c00267c:	8c400044 	addi	r17,r17,1
				BitMask = BitMask >> 1 ;
 c002680:	9827d07a 	srai	r19,r19,1
		theColumn = FONT2_XPIXELS;

		for(row = 0; row < theRow ; row ++)	{
			pixels = Font10x14[theCharacter][row] ;		     								// get the pixels for row 0 of the character to be displayed
			BitMask = 512 ;							   											// set of hex 200 i.e. bit 7-0 = 0010 0000 0000
			for(column = 0; column < theColumn;   )  	{
 c002684:	8dffea16 	blt	r17,r23,c002630 <__alt_data_end+0xfc002630>
	if(((short)(theCharacter) >= (short)(' ')) && ((short)(theCharacter) <= (short)('~'))) {			// if printable character
		theCharacter -= 0x20 ;																			// subtract hex 20 to get index of first printable character (the space character)
		theRow = FONT2_YPIXELS;
		theColumn = FONT2_XPIXELS;

		for(row = 0; row < theRow ; row ++)	{
 c002688:	84000044 	addi	r16,r16,1
 c00268c:	85bfdc16 	blt	r16,r22,c002600 <__alt_data_end+0xfc002600>
					column ++ ;
				BitMask = BitMask >> 1 ;
			}
		}
	}
}
 c002690:	e6fff804 	addi	sp,fp,-32
 c002694:	dfc00917 	ldw	ra,36(sp)
 c002698:	df000817 	ldw	fp,32(sp)
 c00269c:	ddc00717 	ldw	r23,28(sp)
 c0026a0:	dd800617 	ldw	r22,24(sp)
 c0026a4:	dd400517 	ldw	r21,20(sp)
 c0026a8:	dd000417 	ldw	r20,16(sp)
 c0026ac:	dcc00317 	ldw	r19,12(sp)
 c0026b0:	dc800217 	ldw	r18,8(sp)
 c0026b4:	dc400117 	ldw	r17,4(sp)
 c0026b8:	dc000017 	ldw	r16,0(sp)
 c0026bc:	dec00a04 	addi	sp,sp,40
 c0026c0:	f800283a 	ret

0c0026c4 <init_palette>:

void init_palette()
{
 c0026c4:	defff904 	addi	sp,sp,-28
 c0026c8:	dfc00615 	stw	ra,24(sp)
 c0026cc:	df000515 	stw	fp,20(sp)
 c0026d0:	df000504 	addi	fp,sp,20
	int i,j,k;
	int index;
	uint32_t value;

	for (i = 0; i < 4; i++)
 c0026d4:	e03ffb15 	stw	zero,-20(fp)
 c0026d8:	00002c06 	br	c00278c <init_palette+0xc8>
		for (j = 0; j < 4; j++)
 c0026dc:	e03ffc15 	stw	zero,-16(fp)
 c0026e0:	00002406 	br	c002774 <init_palette+0xb0>
			for (k = 0; k < 4; k++){
 c0026e4:	e03ffd15 	stw	zero,-12(fp)
 c0026e8:	00001c06 	br	c00275c <init_palette+0x98>
				index = 16*i + 4*j + k;
 c0026ec:	e0bffb17 	ldw	r2,-20(fp)
 c0026f0:	1085883a 	add	r2,r2,r2
 c0026f4:	1085883a 	add	r2,r2,r2
 c0026f8:	1007883a 	mov	r3,r2
 c0026fc:	e0bffc17 	ldw	r2,-16(fp)
 c002700:	1885883a 	add	r2,r3,r2
 c002704:	1085883a 	add	r2,r2,r2
 c002708:	1085883a 	add	r2,r2,r2
 c00270c:	1007883a 	mov	r3,r2
 c002710:	e0bffd17 	ldw	r2,-12(fp)
 c002714:	1885883a 	add	r2,r3,r2
 c002718:	e0bffe15 	stw	r2,-8(fp)
				value = 5570560*i + 21760*j + 85*k;
 c00271c:	e0fffb17 	ldw	r3,-20(fp)
 c002720:	00801574 	movhi	r2,85
 c002724:	1887383a 	mul	r3,r3,r2
 c002728:	e0bffc17 	ldw	r2,-16(fp)
 c00272c:	10954024 	muli	r2,r2,21760
 c002730:	1887883a 	add	r3,r3,r2
 c002734:	e0bffd17 	ldw	r2,-12(fp)
 c002738:	10801564 	muli	r2,r2,85
 c00273c:	1885883a 	add	r2,r3,r2
 c002740:	e0bfff15 	stw	r2,-4(fp)
				program_palette(index, value);
 c002744:	e13ffe17 	ldw	r4,-8(fp)
 c002748:	e17fff17 	ldw	r5,-4(fp)
 c00274c:	c000af80 	call	c000af8 <program_palette>
	int index;
	uint32_t value;

	for (i = 0; i < 4; i++)
		for (j = 0; j < 4; j++)
			for (k = 0; k < 4; k++){
 c002750:	e0bffd17 	ldw	r2,-12(fp)
 c002754:	10800044 	addi	r2,r2,1
 c002758:	e0bffd15 	stw	r2,-12(fp)
 c00275c:	e0bffd17 	ldw	r2,-12(fp)
 c002760:	10800110 	cmplti	r2,r2,4
 c002764:	103fe11e 	bne	r2,zero,c0026ec <__alt_data_end+0xfc0026ec>
	int i,j,k;
	int index;
	uint32_t value;

	for (i = 0; i < 4; i++)
		for (j = 0; j < 4; j++)
 c002768:	e0bffc17 	ldw	r2,-16(fp)
 c00276c:	10800044 	addi	r2,r2,1
 c002770:	e0bffc15 	stw	r2,-16(fp)
 c002774:	e0bffc17 	ldw	r2,-16(fp)
 c002778:	10800110 	cmplti	r2,r2,4
 c00277c:	103fd91e 	bne	r2,zero,c0026e4 <__alt_data_end+0xfc0026e4>
{
	int i,j,k;
	int index;
	uint32_t value;

	for (i = 0; i < 4; i++)
 c002780:	e0bffb17 	ldw	r2,-20(fp)
 c002784:	10800044 	addi	r2,r2,1
 c002788:	e0bffb15 	stw	r2,-20(fp)
 c00278c:	e0bffb17 	ldw	r2,-20(fp)
 c002790:	10800110 	cmplti	r2,r2,4
 c002794:	103fd11e 	bne	r2,zero,c0026dc <__alt_data_end+0xfc0026dc>
			for (k = 0; k < 4; k++){
				index = 16*i + 4*j + k;
				value = 5570560*i + 21760*j + 85*k;
				program_palette(index, value);
			}
}
 c002798:	e037883a 	mov	sp,fp
 c00279c:	dfc00117 	ldw	ra,4(sp)
 c0027a0:	df000017 	ldw	fp,0(sp)
 c0027a4:	dec00204 	addi	sp,sp,8
 c0027a8:	f800283a 	ret

0c0027ac <print_image>:

void print_image(unsigned char arr[320][240], int x_size, int y_size)
{
 c0027ac:	defff904 	addi	sp,sp,-28
 c0027b0:	dfc00615 	stw	ra,24(sp)
 c0027b4:	df000515 	stw	fp,20(sp)
 c0027b8:	df000504 	addi	fp,sp,20
 c0027bc:	e13ffd15 	stw	r4,-12(fp)
 c0027c0:	e17ffe15 	stw	r5,-8(fp)
 c0027c4:	e1bfff15 	stw	r6,-4(fp)
    int i,j;

    for (j = 0; j < y_size; j++)
 c0027c8:	e03ffc15 	stw	zero,-16(fp)
 c0027cc:	00001906 	br	c002834 <print_image+0x88>
    {
        for (i = 0; i < x_size; i++)
 c0027d0:	e03ffb15 	stw	zero,-20(fp)
 c0027d4:	00001106 	br	c00281c <print_image+0x70>
        {
        write_a_pixel(PICTURE_X_OFFSET + i, PICTURE_Y_OFFSET + j, arr[i][j]);
 c0027d8:	e0bffb17 	ldw	r2,-20(fp)
 c0027dc:	11003c04 	addi	r4,r2,240
 c0027e0:	e0bffc17 	ldw	r2,-16(fp)
 c0027e4:	11401e04 	addi	r5,r2,120
 c0027e8:	e0bffb17 	ldw	r2,-20(fp)
 c0027ec:	10803c24 	muli	r2,r2,240
 c0027f0:	e0fffd17 	ldw	r3,-12(fp)
 c0027f4:	1887883a 	add	r3,r3,r2
 c0027f8:	e0bffc17 	ldw	r2,-16(fp)
 c0027fc:	1885883a 	add	r2,r3,r2
 c002800:	10800003 	ldbu	r2,0(r2)
 c002804:	10803fcc 	andi	r2,r2,255
 c002808:	100d883a 	mov	r6,r2
 c00280c:	c0009ec0 	call	c0009ec <write_a_pixel>
{
    int i,j;

    for (j = 0; j < y_size; j++)
    {
        for (i = 0; i < x_size; i++)
 c002810:	e0bffb17 	ldw	r2,-20(fp)
 c002814:	10800044 	addi	r2,r2,1
 c002818:	e0bffb15 	stw	r2,-20(fp)
 c00281c:	e0fffb17 	ldw	r3,-20(fp)
 c002820:	e0bffe17 	ldw	r2,-8(fp)
 c002824:	18bfec16 	blt	r3,r2,c0027d8 <__alt_data_end+0xfc0027d8>

void print_image(unsigned char arr[320][240], int x_size, int y_size)
{
    int i,j;

    for (j = 0; j < y_size; j++)
 c002828:	e0bffc17 	ldw	r2,-16(fp)
 c00282c:	10800044 	addi	r2,r2,1
 c002830:	e0bffc15 	stw	r2,-16(fp)
 c002834:	e0fffc17 	ldw	r3,-16(fp)
 c002838:	e0bfff17 	ldw	r2,-4(fp)
 c00283c:	18bfe416 	blt	r3,r2,c0027d0 <__alt_data_end+0xfc0027d0>
        for (i = 0; i < x_size; i++)
        {
        write_a_pixel(PICTURE_X_OFFSET + i, PICTURE_Y_OFFSET + j, arr[i][j]);
        }
    }
}
 c002840:	e037883a 	mov	sp,fp
 c002844:	dfc00117 	ldw	ra,4(sp)
 c002848:	df000017 	ldw	fp,0(sp)
 c00284c:	dec00204 	addi	sp,sp,8
 c002850:	f800283a 	ret

0c002854 <check_if_pressed>:
//===================================================================
// Private Function Definitions
//===================================================================

int check_if_pressed(Button button_under_test, Point press_point)
{
 c002854:	defffb04 	addi	sp,sp,-20
 c002858:	df000015 	stw	fp,0(sp)
 c00285c:	d839883a 	mov	fp,sp
 c002860:	e1000115 	stw	r4,4(fp)
 c002864:	e1400215 	stw	r5,8(fp)
 c002868:	e1800315 	stw	r6,12(fp)
 c00286c:	e1c00415 	stw	r7,16(fp)
    if ((press_point.x >= button_under_test.x0) &&
 c002870:	e0c00917 	ldw	r3,36(fp)
 c002874:	e0800117 	ldw	r2,4(fp)
 c002878:	18800b16 	blt	r3,r2,c0028a8 <check_if_pressed+0x54>
        (press_point.x <= button_under_test.x1) &&
 c00287c:	e0800917 	ldw	r2,36(fp)
 c002880:	e0c00217 	ldw	r3,8(fp)
// Private Function Definitions
//===================================================================

int check_if_pressed(Button button_under_test, Point press_point)
{
    if ((press_point.x >= button_under_test.x0) &&
 c002884:	18800816 	blt	r3,r2,c0028a8 <check_if_pressed+0x54>
        (press_point.x <= button_under_test.x1) &&
        (press_point.y >= button_under_test.y0) &&
 c002888:	e0c00a17 	ldw	r3,40(fp)
 c00288c:	e0800317 	ldw	r2,12(fp)
//===================================================================

int check_if_pressed(Button button_under_test, Point press_point)
{
    if ((press_point.x >= button_under_test.x0) &&
        (press_point.x <= button_under_test.x1) &&
 c002890:	18800516 	blt	r3,r2,c0028a8 <check_if_pressed+0x54>
        (press_point.y >= button_under_test.y0) &&
        (press_point.y <= button_under_test.y1))
 c002894:	e0800a17 	ldw	r2,40(fp)
 c002898:	e0c00417 	ldw	r3,16(fp)

int check_if_pressed(Button button_under_test, Point press_point)
{
    if ((press_point.x >= button_under_test.x0) &&
        (press_point.x <= button_under_test.x1) &&
        (press_point.y >= button_under_test.y0) &&
 c00289c:	18800216 	blt	r3,r2,c0028a8 <check_if_pressed+0x54>
        (press_point.y <= button_under_test.y1))
            return 1;
 c0028a0:	00800044 	movi	r2,1
 c0028a4:	00000106 	br	c0028ac <check_if_pressed+0x58>

    return 0;
 c0028a8:	0005883a 	mov	r2,zero
}
 c0028ac:	e037883a 	mov	sp,fp
 c0028b0:	df000017 	ldw	fp,0(sp)
 c0028b4:	dec00504 	addi	sp,sp,20
 c0028b8:	f800283a 	ret

0c0028bc <poll_touch>:

int poll_touch(int timeout_usec)
{
 c0028bc:	defff404 	addi	sp,sp,-48
 c0028c0:	dfc00b15 	stw	ra,44(sp)
 c0028c4:	df000a15 	stw	fp,40(sp)
 c0028c8:	df000a04 	addi	fp,sp,40
 c0028cc:	e13fff15 	stw	r4,-4(fp)
    Point touch_point = get_press_timeout(timeout_usec);
 c0028d0:	e0bfff17 	ldw	r2,-4(fp)
 c0028d4:	1009883a 	mov	r4,r2
 c0028d8:	c007c740 	call	c007c74 <get_press_timeout>
 c0028dc:	1009883a 	mov	r4,r2
 c0028e0:	180b883a 	mov	r5,r3
 c0028e4:	e13ffd15 	stw	r4,-12(fp)
 c0028e8:	e17ffe15 	stw	r5,-8(fp)
    if (touch_point.x == INVALID_POINT_DATA){
 c0028ec:	e0bffd17 	ldw	r2,-12(fp)
 c0028f0:	10bfffd8 	cmpnei	r2,r2,-1
 c0028f4:	1000021e 	bne	r2,zero,c002900 <poll_touch+0x44>

        return -1;
 c0028f8:	00bfffc4 	movi	r2,-1
 c0028fc:	00002206 	br	c002988 <poll_touch+0xcc>
    }
    //touch_point = get_release();


    int button_index;
    for (button_index = 0; button_index < button_array_size; button_index++)
 c002900:	e03ffc15 	stw	zero,-16(fp)
 c002904:	00001c06 	br	c002978 <poll_touch+0xbc>
    {
        if(check_if_pressed(button_array[button_index], touch_point))
 c002908:	008302f4 	movhi	r2,3083
 c00290c:	10a00a04 	addi	r2,r2,-32728
 c002910:	e0fffc17 	ldw	r3,-16(fp)
 c002914:	1806917a 	slli	r3,r3,5
 c002918:	10c5883a 	add	r2,r2,r3
 c00291c:	e0fffd17 	ldw	r3,-12(fp)
 c002920:	d8c00415 	stw	r3,16(sp)
 c002924:	e0fffe17 	ldw	r3,-8(fp)
 c002928:	d8c00515 	stw	r3,20(sp)
 c00292c:	10c00417 	ldw	r3,16(r2)
 c002930:	d8c00015 	stw	r3,0(sp)
 c002934:	10c00517 	ldw	r3,20(r2)
 c002938:	d8c00115 	stw	r3,4(sp)
 c00293c:	10c00617 	ldw	r3,24(r2)
 c002940:	d8c00215 	stw	r3,8(sp)
 c002944:	10c00717 	ldw	r3,28(r2)
 c002948:	d8c00315 	stw	r3,12(sp)
 c00294c:	11000017 	ldw	r4,0(r2)
 c002950:	11400117 	ldw	r5,4(r2)
 c002954:	11800217 	ldw	r6,8(r2)
 c002958:	11c00317 	ldw	r7,12(r2)
 c00295c:	c0028540 	call	c002854 <check_if_pressed>
 c002960:	10000226 	beq	r2,zero,c00296c <poll_touch+0xb0>
            return button_index;
 c002964:	e0bffc17 	ldw	r2,-16(fp)
 c002968:	00000706 	br	c002988 <poll_touch+0xcc>
    }
    //touch_point = get_release();


    int button_index;
    for (button_index = 0; button_index < button_array_size; button_index++)
 c00296c:	e0bffc17 	ldw	r2,-16(fp)
 c002970:	10800044 	addi	r2,r2,1
 c002974:	e0bffc15 	stw	r2,-16(fp)
 c002978:	e0fffc17 	ldw	r3,-16(fp)
 c00297c:	d0a00217 	ldw	r2,-32760(gp)
 c002980:	18bfe136 	bltu	r3,r2,c002908 <__alt_data_end+0xfc002908>
    {
        if(check_if_pressed(button_array[button_index], touch_point))
            return button_index;
    }
    return -1;
 c002984:	00bfffc4 	movi	r2,-1
}
 c002988:	e037883a 	mov	sp,fp
 c00298c:	dfc00117 	ldw	ra,4(sp)
 c002990:	df000017 	ldw	fp,0(sp)
 c002994:	dec00204 	addi	sp,sp,8
 c002998:	f800283a 	ret

0c00299c <retrieve_and_process_image>:


void retrieve_and_process_image(void)
{
 c00299c:	defffe04 	addi	sp,sp,-8
 c0029a0:	dfc00115 	stw	ra,4(sp)
 c0029a4:	df000015 	stw	fp,0(sp)
 c0029a8:	d839883a 	mov	fp,sp
 c0029ac:	023ffff4 	movhi	r8,65535
 c0029b0:	4234f904 	addi	r8,r8,-11292
 c0029b4:	da37883a 	add	sp,sp,r8
    take_picture();
 c0029b8:	c0005dc0 	call	c0005dc <take_picture>
    uint32_t size = frame_length();
 c0029bc:	c00063c0 	call	c00063c <frame_length>
 c0029c0:	00fffff4 	movhi	r3,65535
 c0029c4:	18f4f904 	addi	r3,r3,-11292
 c0029c8:	1f07883a 	add	r3,r3,fp
 c0029cc:	18800015 	stw	r2,0(r3)
    uint32_t len = size;
 c0029d0:	013ffff4 	movhi	r4,65535
 c0029d4:	2134f904 	addi	r4,r4,-11292
 c0029d8:	2709883a 	add	r4,r4,fp
 c0029dc:	20800017 	ldw	r2,0(r4)
 c0029e0:	017ffff4 	movhi	r5,65535
 c0029e4:	2974fb04 	addi	r5,r5,-11284
 c0029e8:	2f0b883a 	add	r5,r5,fp
 c0029ec:	28800015 	stw	r2,0(r5)
    printf("Frame size: %ld\n", size);
 c0029f0:	010300b4 	movhi	r4,3074
 c0029f4:	21083904 	addi	r4,r4,8420
 c0029f8:	00bffff4 	movhi	r2,65535
 c0029fc:	10b4f904 	addi	r2,r2,-11292
 c002a00:	1705883a 	add	r2,r2,fp
 c002a04:	11400017 	ldw	r5,0(r2)
 c002a08:	c0098040 	call	c009804 <printf>

    int current_index = 0;
 c002a0c:	00fffff4 	movhi	r3,65535
 c002a10:	18f4fc04 	addi	r3,r3,-11280
 c002a14:	1f07883a 	add	r3,r3,fp
 c002a18:	18000015 	stw	zero,0(r3)
    int i;
    uint8_t *jpeg_buffer = malloc((sizeof(uint8_t)*size) + 10);
 c002a1c:	013ffff4 	movhi	r4,65535
 c002a20:	2134f904 	addi	r4,r4,-11292
 c002a24:	2709883a 	add	r4,r4,fp
 c002a28:	20800017 	ldw	r2,0(r4)
 c002a2c:	10800284 	addi	r2,r2,10
 c002a30:	1009883a 	mov	r4,r2
 c002a34:	c008dac0 	call	c008dac <malloc>
 c002a38:	017ffff4 	movhi	r5,65535
 c002a3c:	2974fd04 	addi	r5,r5,-11276
 c002a40:	2f0b883a 	add	r5,r5,fp
 c002a44:	28800015 	stw	r2,0(r5)

    buffer = read_picture(size);
    for(i=0;i<size;i++)
        jpeg_buffer[current_index+i] = *(buffer+i);*/

    while (size > 64) {
 c002a48:	00000f06 	br	c002a88 <retrieve_and_process_image+0xec>
            // read 32 bytes at a time;
            read_picture_to_ptr(jpeg_buffer, 64);
 c002a4c:	00bffff4 	movhi	r2,65535
 c002a50:	10b4fd04 	addi	r2,r2,-11276
 c002a54:	1705883a 	add	r2,r2,fp
 c002a58:	11000017 	ldw	r4,0(r2)
 c002a5c:	01401004 	movi	r5,64
 c002a60:	c00086c0 	call	c00086c <read_picture_to_ptr>
            size -= 64;
 c002a64:	00fffff4 	movhi	r3,65535
 c002a68:	18f4f904 	addi	r3,r3,-11292
 c002a6c:	1f07883a 	add	r3,r3,fp
 c002a70:	18800017 	ldw	r2,0(r3)
 c002a74:	10bff004 	addi	r2,r2,-64
 c002a78:	013ffff4 	movhi	r4,65535
 c002a7c:	2134f904 	addi	r4,r4,-11292
 c002a80:	2709883a 	add	r4,r4,fp
 c002a84:	20800015 	stw	r2,0(r4)

    buffer = read_picture(size);
    for(i=0;i<size;i++)
        jpeg_buffer[current_index+i] = *(buffer+i);*/

    while (size > 64) {
 c002a88:	017ffff4 	movhi	r5,65535
 c002a8c:	2974f904 	addi	r5,r5,-11292
 c002a90:	2f0b883a 	add	r5,r5,fp
 c002a94:	28800017 	ldw	r2,0(r5)
 c002a98:	10801068 	cmpgeui	r2,r2,65
 c002a9c:	103feb1e 	bne	r2,zero,c002a4c <__alt_data_end+0xfc002a4c>
            // read 32 bytes at a time;
            read_picture_to_ptr(jpeg_buffer, 64);
            size -= 64;
        }

    read_picture_to_ptr(jpeg_buffer, size);
 c002aa0:	00fffff4 	movhi	r3,65535
 c002aa4:	18f4f904 	addi	r3,r3,-11292
 c002aa8:	1f07883a 	add	r3,r3,fp
 c002aac:	18800017 	ldw	r2,0(r3)
 c002ab0:	10803fcc 	andi	r2,r2,255
 c002ab4:	017ffff4 	movhi	r5,65535
 c002ab8:	2974fd04 	addi	r5,r5,-11276
 c002abc:	2f0b883a 	add	r5,r5,fp
 c002ac0:	29000017 	ldw	r4,0(r5)
 c002ac4:	100b883a 	mov	r5,r2
 c002ac8:	c00086c0 	call	c00086c <read_picture_to_ptr>


    resume_picture();
 c002acc:	c00060c0 	call	c00060c <resume_picture>
    printf("DECODING\n");
 c002ad0:	010300b4 	movhi	r4,3074
 c002ad4:	21083e04 	addi	r4,r4,8440
 c002ad8:	c0099180 	call	c009918 <puts>

    //print_byte_array(jpeg_buffer, len);
    printf("The value of decode is: %d\n", njDecode(jpeg_buffer,len));
 c002adc:	00bffff4 	movhi	r2,65535
 c002ae0:	10b4fd04 	addi	r2,r2,-11276
 c002ae4:	1705883a 	add	r2,r2,fp
 c002ae8:	11000017 	ldw	r4,0(r2)
 c002aec:	00fffff4 	movhi	r3,65535
 c002af0:	18f4fb04 	addi	r3,r3,-11284
 c002af4:	1f07883a 	add	r3,r3,fp
 c002af8:	19400017 	ldw	r5,0(r3)
 c002afc:	c0068cc0 	call	c0068cc <njDecode>
 c002b00:	010300b4 	movhi	r4,3074
 c002b04:	21084104 	addi	r4,r4,8452
 c002b08:	100b883a 	mov	r5,r2
 c002b0c:	c0098040 	call	c009804 <printf>


    unsigned char *bitmap = njGetImage();
 c002b10:	c006b640 	call	c006b64 <njGetImage>
 c002b14:	013ffff4 	movhi	r4,65535
 c002b18:	2134fe04 	addi	r4,r4,-11272
 c002b1c:	2709883a 	add	r4,r4,fp
 c002b20:	20800015 	stw	r2,0(r4)
    unsigned char PMF[320][240];
    unsigned char value;
    int curr;
    for(curr = 0; curr < njGetImageSize()/3; curr++)
 c002b24:	017ffff4 	movhi	r5,65535
 c002b28:	2974fa04 	addi	r5,r5,-11288
 c002b2c:	2f0b883a 	add	r5,r5,fp
 c002b30:	28000015 	stw	zero,0(r5)
 c002b34:	00005f06 	br	c002cb4 <retrieve_and_process_image+0x318>
    {
        value = (bitmap[3*curr] & 0xC0) | (bitmap[3*curr+1] & 0xC0)>>2 |  (bitmap[3*curr+2] & 0xC0)>>4;
 c002b38:	00bffff4 	movhi	r2,65535
 c002b3c:	10b4fa04 	addi	r2,r2,-11288
 c002b40:	1705883a 	add	r2,r2,fp
 c002b44:	10c00017 	ldw	r3,0(r2)
 c002b48:	1805883a 	mov	r2,r3
 c002b4c:	1085883a 	add	r2,r2,r2
 c002b50:	10c5883a 	add	r2,r2,r3
 c002b54:	1007883a 	mov	r3,r2
 c002b58:	013ffff4 	movhi	r4,65535
 c002b5c:	2134fe04 	addi	r4,r4,-11272
 c002b60:	2709883a 	add	r4,r4,fp
 c002b64:	20800017 	ldw	r2,0(r4)
 c002b68:	10c5883a 	add	r2,r2,r3
 c002b6c:	10800003 	ldbu	r2,0(r2)
 c002b70:	1007883a 	mov	r3,r2
 c002b74:	00bff004 	movi	r2,-64
 c002b78:	1884703a 	and	r2,r3,r2
 c002b7c:	1009883a 	mov	r4,r2
 c002b80:	017ffff4 	movhi	r5,65535
 c002b84:	2974fa04 	addi	r5,r5,-11288
 c002b88:	2f0b883a 	add	r5,r5,fp
 c002b8c:	28c00017 	ldw	r3,0(r5)
 c002b90:	1805883a 	mov	r2,r3
 c002b94:	1085883a 	add	r2,r2,r2
 c002b98:	10c5883a 	add	r2,r2,r3
 c002b9c:	10800044 	addi	r2,r2,1
 c002ba0:	017ffff4 	movhi	r5,65535
 c002ba4:	2974fe04 	addi	r5,r5,-11272
 c002ba8:	2f0b883a 	add	r5,r5,fp
 c002bac:	28c00017 	ldw	r3,0(r5)
 c002bb0:	1885883a 	add	r2,r3,r2
 c002bb4:	10800003 	ldbu	r2,0(r2)
 c002bb8:	10803fcc 	andi	r2,r2,255
 c002bbc:	1080300c 	andi	r2,r2,192
 c002bc0:	1005d0ba 	srai	r2,r2,2
 c002bc4:	2084b03a 	or	r2,r4,r2
 c002bc8:	1009883a 	mov	r4,r2
 c002bcc:	00bffff4 	movhi	r2,65535
 c002bd0:	10b4fa04 	addi	r2,r2,-11288
 c002bd4:	1705883a 	add	r2,r2,fp
 c002bd8:	10c00017 	ldw	r3,0(r2)
 c002bdc:	1805883a 	mov	r2,r3
 c002be0:	1085883a 	add	r2,r2,r2
 c002be4:	10c5883a 	add	r2,r2,r3
 c002be8:	10800084 	addi	r2,r2,2
 c002bec:	017ffff4 	movhi	r5,65535
 c002bf0:	2974fe04 	addi	r5,r5,-11272
 c002bf4:	2f0b883a 	add	r5,r5,fp
 c002bf8:	28c00017 	ldw	r3,0(r5)
 c002bfc:	1885883a 	add	r2,r3,r2
 c002c00:	10800003 	ldbu	r2,0(r2)
 c002c04:	10803fcc 	andi	r2,r2,255
 c002c08:	1080300c 	andi	r2,r2,192
 c002c0c:	1005d13a 	srai	r2,r2,4
 c002c10:	2084b03a 	or	r2,r4,r2
 c002c14:	00fffff4 	movhi	r3,65535
 c002c18:	18f4ff04 	addi	r3,r3,-11268
 c002c1c:	1f07883a 	add	r3,r3,fp
 c002c20:	18800005 	stb	r2,0(r3)
        PMF[curr%320][(int)(curr/320)] = (value)>>2;
 c002c24:	013ffff4 	movhi	r4,65535
 c002c28:	2134fa04 	addi	r4,r4,-11288
 c002c2c:	2709883a 	add	r4,r4,fp
 c002c30:	20800017 	ldw	r2,0(r4)
 c002c34:	00c05004 	movi	r3,320
 c002c38:	10c7283a 	div	r3,r2,r3
 c002c3c:	18c05024 	muli	r3,r3,320
 c002c40:	10c7c83a 	sub	r3,r2,r3
 c002c44:	017ffff4 	movhi	r5,65535
 c002c48:	2974fa04 	addi	r5,r5,-11288
 c002c4c:	2f0b883a 	add	r5,r5,fp
 c002c50:	29000017 	ldw	r4,0(r5)
 c002c54:	00805004 	movi	r2,320
 c002c58:	2085283a 	div	r2,r4,r2
 c002c5c:	017ffff4 	movhi	r5,65535
 c002c60:	2974ff04 	addi	r5,r5,-11268
 c002c64:	2f0b883a 	add	r5,r5,fp
 c002c68:	29000003 	ldbu	r4,0(r5)
 c002c6c:	2008d0ba 	srli	r4,r4,2
 c002c70:	18c03c24 	muli	r3,r3,240
 c002c74:	017ffff4 	movhi	r5,65535
 c002c78:	2974f904 	addi	r5,r5,-11292
 c002c7c:	2f0b883a 	add	r5,r5,fp
 c002c80:	28c7883a 	add	r3,r5,r3
 c002c84:	1885883a 	add	r2,r3,r2
 c002c88:	10800644 	addi	r2,r2,25
 c002c8c:	11000005 	stb	r4,0(r2)

    unsigned char *bitmap = njGetImage();
    unsigned char PMF[320][240];
    unsigned char value;
    int curr;
    for(curr = 0; curr < njGetImageSize()/3; curr++)
 c002c90:	00fffff4 	movhi	r3,65535
 c002c94:	18f4fa04 	addi	r3,r3,-11288
 c002c98:	1f07883a 	add	r3,r3,fp
 c002c9c:	18800017 	ldw	r2,0(r3)
 c002ca0:	10800044 	addi	r2,r2,1
 c002ca4:	013ffff4 	movhi	r4,65535
 c002ca8:	2134fa04 	addi	r4,r4,-11288
 c002cac:	2709883a 	add	r4,r4,fp
 c002cb0:	20800015 	stw	r2,0(r4)
 c002cb4:	c006bbc0 	call	c006bbc <njGetImageSize>
 c002cb8:	1007883a 	mov	r3,r2
 c002cbc:	008000c4 	movi	r2,3
 c002cc0:	1885283a 	div	r2,r3,r2
 c002cc4:	017ffff4 	movhi	r5,65535
 c002cc8:	2974fa04 	addi	r5,r5,-11288
 c002ccc:	2f0b883a 	add	r5,r5,fp
 c002cd0:	28c00017 	ldw	r3,0(r5)
 c002cd4:	18bf9816 	blt	r3,r2,c002b38 <__alt_data_end+0xfc002b38>
    {
        value = (bitmap[3*curr] & 0xC0) | (bitmap[3*curr+1] & 0xC0)>>2 |  (bitmap[3*curr+2] & 0xC0)>>4;
        PMF[curr%320][(int)(curr/320)] = (value)>>2;
    }

    print_image(PMF, 320, 240);
 c002cd8:	00fffff4 	movhi	r3,65535
 c002cdc:	18f4ff44 	addi	r3,r3,-11267
 c002ce0:	e0c5883a 	add	r2,fp,r3
 c002ce4:	1009883a 	mov	r4,r2
 c002ce8:	01405004 	movi	r5,320
 c002cec:	01803c04 	movi	r6,240
 c002cf0:	c0027ac0 	call	c0027ac <print_image>
    free(jpeg_buffer);
 c002cf4:	017ffff4 	movhi	r5,65535
 c002cf8:	2974fd04 	addi	r5,r5,-11276
 c002cfc:	2f0b883a 	add	r5,r5,fp
 c002d00:	29000017 	ldw	r4,0(r5)
 c002d04:	c008dc00 	call	c008dc0 <free>
}
 c002d08:	e037883a 	mov	sp,fp
 c002d0c:	dfc00117 	ldw	ra,4(sp)
 c002d10:	df000017 	ldw	fp,0(sp)
 c002d14:	dec00204 	addi	sp,sp,8
 c002d18:	f800283a 	ret

0c002d1c <init_gui>:

//===================================================================
// Public Function Definitions
//===================================================================
 void init_gui(){
 c002d1c:	deffbc04 	addi	sp,sp,-272
 c002d20:	dfc04315 	stw	ra,268(sp)
 c002d24:	df004215 	stw	fp,264(sp)
 c002d28:	df004204 	addi	fp,sp,264

    // Initialize all modules that are controlled by the GUI
     init_palette();
 c002d2c:	c0026c40 	call	c0026c4 <init_palette>
     init_touch();
 c002d30:	c007b940 	call	c007b94 <init_touch>
     init_motors();
 c002d34:	c0073700 	call	c007370 <init_motors>
     int speed = 3;
 c002d38:	008000c4 	movi	r2,3
 c002d3c:	e0bfbf15 	stw	r2,-260(fp)
     set_motor_speed(&speed);
 c002d40:	e13fbf04 	addi	r4,fp,-260
 c002d44:	c0076700 	call	c007670 <set_motor_speed>

    // Button initialization code
    Button manual_button;
    manual_button.x0 = 500;
 c002d48:	00807d04 	movi	r2,500
 c002d4c:	e0bfc015 	stw	r2,-256(fp)
    manual_button.x1 = 580;
 c002d50:	00809104 	movi	r2,580
 c002d54:	e0bfc115 	stw	r2,-252(fp)
    manual_button.y0 = 10;
 c002d58:	00800284 	movi	r2,10
 c002d5c:	e0bfc215 	stw	r2,-248(fp)
    manual_button.y1 = 50;
 c002d60:	00800c84 	movi	r2,50
 c002d64:	e0bfc315 	stw	r2,-244(fp)
    manual_button.this_button_type = manual;
 c002d68:	e03fc415 	stw	zero,-240(fp)
    manual_button.pressed_button_type = manual_pressed;
 c002d6c:	00800204 	movi	r2,8
 c002d70:	e0bfc515 	stw	r2,-236(fp)
    manual_button.toggled = 0;
 c002d74:	e03fc715 	stw	zero,-228(fp)
    manual_button.func = manual_callback;
 c002d78:	00830034 	movhi	r2,3072
 c002d7c:	108c8a04 	addi	r2,r2,12840
 c002d80:	e0bfc615 	stw	r2,-232(fp)

    Button automatic_button;
    automatic_button.x0 = 590;
 c002d84:	00809384 	movi	r2,590
 c002d88:	e0bfc815 	stw	r2,-224(fp)
    automatic_button.x1 = 670;
 c002d8c:	0080a784 	movi	r2,670
 c002d90:	e0bfc915 	stw	r2,-220(fp)
    automatic_button.y0 = 10;
 c002d94:	00800284 	movi	r2,10
 c002d98:	e0bfca15 	stw	r2,-216(fp)
    automatic_button.y1 = 50;
 c002d9c:	00800c84 	movi	r2,50
 c002da0:	e0bfcb15 	stw	r2,-212(fp)
    automatic_button.this_button_type = automatic;
 c002da4:	00800044 	movi	r2,1
 c002da8:	e0bfcc15 	stw	r2,-208(fp)
    automatic_button.pressed_button_type = automatic_pressed;
 c002dac:	00800244 	movi	r2,9
 c002db0:	e0bfcd15 	stw	r2,-204(fp)
    automatic_button.toggled = 0;
 c002db4:	e03fcf15 	stw	zero,-196(fp)
    automatic_button.func = automatic_callback;
 c002db8:	00830034 	movhi	r2,3072
 c002dbc:	108cad04 	addi	r2,r2,12980
 c002dc0:	e0bfce15 	stw	r2,-200(fp)

    Button security_button;
    security_button.x0 = 680;
 c002dc4:	0080aa04 	movi	r2,680
 c002dc8:	e0bfd015 	stw	r2,-192(fp)
    security_button.x1 = 760;
 c002dcc:	0080be04 	movi	r2,760
 c002dd0:	e0bfd115 	stw	r2,-188(fp)
    security_button.y0 = 10;
 c002dd4:	00800284 	movi	r2,10
 c002dd8:	e0bfd215 	stw	r2,-184(fp)
    security_button.y1 = 50;
 c002ddc:	00800c84 	movi	r2,50
 c002de0:	e0bfd315 	stw	r2,-180(fp)
    security_button.this_button_type = security;
 c002de4:	00800084 	movi	r2,2
 c002de8:	e0bfd415 	stw	r2,-176(fp)
    security_button.pressed_button_type = security_pressed;
 c002dec:	00800284 	movi	r2,10
 c002df0:	e0bfd515 	stw	r2,-172(fp)
    security_button.toggled = 0;
 c002df4:	e03fd715 	stw	zero,-164(fp)
    security_button.func = security_callback;
 c002df8:	00830034 	movhi	r2,3072
 c002dfc:	108cd004 	addi	r2,r2,13120
 c002e00:	e0bfd615 	stw	r2,-168(fp)

	Button fire_button;
	fire_button.x0 = 580;
 c002e04:	00809104 	movi	r2,580
 c002e08:	e0bfd815 	stw	r2,-160(fp)
	fire_button.x1 = 620;
 c002e0c:	00809b04 	movi	r2,620
 c002e10:	e0bfd915 	stw	r2,-156(fp)
	fire_button.y0 = 430;
 c002e14:	00806b84 	movi	r2,430
 c002e18:	e0bfda15 	stw	r2,-152(fp)
	fire_button.y1 = 470;
 c002e1c:	00807584 	movi	r2,470
 c002e20:	e0bfdb15 	stw	r2,-148(fp)
	fire_button.this_button_type = fire;
 c002e24:	008000c4 	movi	r2,3
 c002e28:	e0bfdc15 	stw	r2,-144(fp)
	fire_button.pressed_button_type = fire_pressed;
 c002e2c:	008002c4 	movi	r2,11
 c002e30:	e0bfdd15 	stw	r2,-140(fp)
	fire_button.toggled = 0;
 c002e34:	e03fdf15 	stw	zero,-132(fp)
	fire_button.func = fire_callback;
 c002e38:	00830034 	movhi	r2,3072
 c002e3c:	108cf304 	addi	r2,r2,13260
 c002e40:	e0bfde15 	stw	r2,-136(fp)

	Button left_button;
	left_button.x0 = 0;
 c002e44:	e03fe015 	stw	zero,-128(fp)
	left_button.x1 = 50;
 c002e48:	00800c84 	movi	r2,50
 c002e4c:	e0bfe115 	stw	r2,-124(fp)
	left_button.y0 = 190;
 c002e50:	00802f84 	movi	r2,190
 c002e54:	e0bfe215 	stw	r2,-120(fp)
	left_button.y1 = 290;
 c002e58:	00804884 	movi	r2,290
 c002e5c:	e0bfe315 	stw	r2,-116(fp)
	left_button.this_button_type = left;
 c002e60:	00800104 	movi	r2,4
 c002e64:	e0bfe415 	stw	r2,-112(fp)
	left_button.pressed_button_type = left_pressed;
 c002e68:	00800304 	movi	r2,12
 c002e6c:	e0bfe515 	stw	r2,-108(fp)
	left_button.toggled = 0;
 c002e70:	e03fe715 	stw	zero,-100(fp)
	left_button.func = left_callback;
 c002e74:	00830034 	movhi	r2,3072
 c002e78:	108d0b04 	addi	r2,r2,13356
 c002e7c:	e0bfe615 	stw	r2,-104(fp)

	Button right_button;
	right_button.x0 = 750;
 c002e80:	0080bb84 	movi	r2,750
 c002e84:	e0bfe815 	stw	r2,-96(fp)
	right_button.x1 = 800;
 c002e88:	0080c804 	movi	r2,800
 c002e8c:	e0bfe915 	stw	r2,-92(fp)
	right_button.y0 = 190;
 c002e90:	00802f84 	movi	r2,190
 c002e94:	e0bfea15 	stw	r2,-88(fp)
	right_button.y1 = 290;
 c002e98:	00804884 	movi	r2,290
 c002e9c:	e0bfeb15 	stw	r2,-84(fp)
	right_button.this_button_type = right;
 c002ea0:	00800144 	movi	r2,5
 c002ea4:	e0bfec15 	stw	r2,-80(fp)
	right_button.pressed_button_type = right_pressed;
 c002ea8:	00800344 	movi	r2,13
 c002eac:	e0bfed15 	stw	r2,-76(fp)
	right_button.toggled = 0;
 c002eb0:	e03fef15 	stw	zero,-68(fp)
	right_button.func = right_callback;
 c002eb4:	00830034 	movhi	r2,3072
 c002eb8:	108d3504 	addi	r2,r2,13524
 c002ebc:	e0bfee15 	stw	r2,-72(fp)

	Button up_button;
	up_button.x0 = 350;
 c002ec0:	00805784 	movi	r2,350
 c002ec4:	e0bff015 	stw	r2,-64(fp)
	up_button.x1 = 450;
 c002ec8:	00807084 	movi	r2,450
 c002ecc:	e0bff115 	stw	r2,-60(fp)
	up_button.y0 = 0;
 c002ed0:	e03ff215 	stw	zero,-56(fp)
	up_button.y1 = 50;
 c002ed4:	00800c84 	movi	r2,50
 c002ed8:	e0bff315 	stw	r2,-52(fp)
	up_button.this_button_type = up;
 c002edc:	008001c4 	movi	r2,7
 c002ee0:	e0bff415 	stw	r2,-48(fp)
	up_button.pressed_button_type = up_pressed;
 c002ee4:	008003c4 	movi	r2,15
 c002ee8:	e0bff515 	stw	r2,-44(fp)
	up_button.toggled = 0;
 c002eec:	e03ff715 	stw	zero,-36(fp)
	up_button.func = up_callback;
 c002ef0:	00830034 	movhi	r2,3072
 c002ef4:	108d5f04 	addi	r2,r2,13692
 c002ef8:	e0bff615 	stw	r2,-40(fp)

	Button down_button;
	down_button.x0 = 350;
 c002efc:	00805784 	movi	r2,350
 c002f00:	e0bff815 	stw	r2,-32(fp)
	down_button.x1 = 450;
 c002f04:	00807084 	movi	r2,450
 c002f08:	e0bff915 	stw	r2,-28(fp)
	down_button.y0 = 430;
 c002f0c:	00806b84 	movi	r2,430
 c002f10:	e0bffa15 	stw	r2,-24(fp)
	down_button.y1 = 480;
 c002f14:	00807804 	movi	r2,480
 c002f18:	e0bffb15 	stw	r2,-20(fp)
	down_button.this_button_type = down;
 c002f1c:	00800184 	movi	r2,6
 c002f20:	e0bffc15 	stw	r2,-16(fp)
	down_button.pressed_button_type = down_pressed;
 c002f24:	00800384 	movi	r2,14
 c002f28:	e0bffd15 	stw	r2,-12(fp)
	down_button.toggled = 0;
 c002f2c:	e03fff15 	stw	zero,-4(fp)
	down_button.func = down_callback;
 c002f30:	00830034 	movhi	r2,3072
 c002f34:	108d8904 	addi	r2,r2,13860
 c002f38:	e0bffe15 	stw	r2,-8(fp)

	button_array[MANUAL_BUTTON] = manual_button;
 c002f3c:	008302f4 	movhi	r2,3083
 c002f40:	10a00a04 	addi	r2,r2,-32728
 c002f44:	e0ffc017 	ldw	r3,-256(fp)
 c002f48:	10c00015 	stw	r3,0(r2)
 c002f4c:	e0ffc117 	ldw	r3,-252(fp)
 c002f50:	10c00115 	stw	r3,4(r2)
 c002f54:	e0ffc217 	ldw	r3,-248(fp)
 c002f58:	10c00215 	stw	r3,8(r2)
 c002f5c:	e0ffc317 	ldw	r3,-244(fp)
 c002f60:	10c00315 	stw	r3,12(r2)
 c002f64:	e0ffc417 	ldw	r3,-240(fp)
 c002f68:	10c00415 	stw	r3,16(r2)
 c002f6c:	e0ffc517 	ldw	r3,-236(fp)
 c002f70:	10c00515 	stw	r3,20(r2)
 c002f74:	e0ffc617 	ldw	r3,-232(fp)
 c002f78:	10c00615 	stw	r3,24(r2)
 c002f7c:	e0ffc717 	ldw	r3,-228(fp)
 c002f80:	10c00715 	stw	r3,28(r2)
	button_array[AUTOMATIC_BUTTON] = automatic_button;
 c002f84:	008302f4 	movhi	r2,3083
 c002f88:	10a00a04 	addi	r2,r2,-32728
 c002f8c:	e0ffc817 	ldw	r3,-224(fp)
 c002f90:	10c00815 	stw	r3,32(r2)
 c002f94:	e0ffc917 	ldw	r3,-220(fp)
 c002f98:	10c00915 	stw	r3,36(r2)
 c002f9c:	e0ffca17 	ldw	r3,-216(fp)
 c002fa0:	10c00a15 	stw	r3,40(r2)
 c002fa4:	e0ffcb17 	ldw	r3,-212(fp)
 c002fa8:	10c00b15 	stw	r3,44(r2)
 c002fac:	e0ffcc17 	ldw	r3,-208(fp)
 c002fb0:	10c00c15 	stw	r3,48(r2)
 c002fb4:	e0ffcd17 	ldw	r3,-204(fp)
 c002fb8:	10c00d15 	stw	r3,52(r2)
 c002fbc:	e0ffce17 	ldw	r3,-200(fp)
 c002fc0:	10c00e15 	stw	r3,56(r2)
 c002fc4:	e0ffcf17 	ldw	r3,-196(fp)
 c002fc8:	10c00f15 	stw	r3,60(r2)
	button_array[SECURITY_BUTTON] = security_button;
 c002fcc:	008302f4 	movhi	r2,3083
 c002fd0:	10a00a04 	addi	r2,r2,-32728
 c002fd4:	e0ffd017 	ldw	r3,-192(fp)
 c002fd8:	10c01015 	stw	r3,64(r2)
 c002fdc:	e0ffd117 	ldw	r3,-188(fp)
 c002fe0:	10c01115 	stw	r3,68(r2)
 c002fe4:	e0ffd217 	ldw	r3,-184(fp)
 c002fe8:	10c01215 	stw	r3,72(r2)
 c002fec:	e0ffd317 	ldw	r3,-180(fp)
 c002ff0:	10c01315 	stw	r3,76(r2)
 c002ff4:	e0ffd417 	ldw	r3,-176(fp)
 c002ff8:	10c01415 	stw	r3,80(r2)
 c002ffc:	e0ffd517 	ldw	r3,-172(fp)
 c003000:	10c01515 	stw	r3,84(r2)
 c003004:	e0ffd617 	ldw	r3,-168(fp)
 c003008:	10c01615 	stw	r3,88(r2)
 c00300c:	e0ffd717 	ldw	r3,-164(fp)
 c003010:	10c01715 	stw	r3,92(r2)
	button_array[FIRE_BUTTON] = fire_button;
 c003014:	008302f4 	movhi	r2,3083
 c003018:	10a00a04 	addi	r2,r2,-32728
 c00301c:	e0ffd817 	ldw	r3,-160(fp)
 c003020:	10c01815 	stw	r3,96(r2)
 c003024:	e0ffd917 	ldw	r3,-156(fp)
 c003028:	10c01915 	stw	r3,100(r2)
 c00302c:	e0ffda17 	ldw	r3,-152(fp)
 c003030:	10c01a15 	stw	r3,104(r2)
 c003034:	e0ffdb17 	ldw	r3,-148(fp)
 c003038:	10c01b15 	stw	r3,108(r2)
 c00303c:	e0ffdc17 	ldw	r3,-144(fp)
 c003040:	10c01c15 	stw	r3,112(r2)
 c003044:	e0ffdd17 	ldw	r3,-140(fp)
 c003048:	10c01d15 	stw	r3,116(r2)
 c00304c:	e0ffde17 	ldw	r3,-136(fp)
 c003050:	10c01e15 	stw	r3,120(r2)
 c003054:	e0ffdf17 	ldw	r3,-132(fp)
 c003058:	10c01f15 	stw	r3,124(r2)
	button_array[LEFT_BUTTON] = left_button;
 c00305c:	008302f4 	movhi	r2,3083
 c003060:	10a00a04 	addi	r2,r2,-32728
 c003064:	e0ffe017 	ldw	r3,-128(fp)
 c003068:	10c02015 	stw	r3,128(r2)
 c00306c:	e0ffe117 	ldw	r3,-124(fp)
 c003070:	10c02115 	stw	r3,132(r2)
 c003074:	e0ffe217 	ldw	r3,-120(fp)
 c003078:	10c02215 	stw	r3,136(r2)
 c00307c:	e0ffe317 	ldw	r3,-116(fp)
 c003080:	10c02315 	stw	r3,140(r2)
 c003084:	e0ffe417 	ldw	r3,-112(fp)
 c003088:	10c02415 	stw	r3,144(r2)
 c00308c:	e0ffe517 	ldw	r3,-108(fp)
 c003090:	10c02515 	stw	r3,148(r2)
 c003094:	e0ffe617 	ldw	r3,-104(fp)
 c003098:	10c02615 	stw	r3,152(r2)
 c00309c:	e0ffe717 	ldw	r3,-100(fp)
 c0030a0:	10c02715 	stw	r3,156(r2)
	button_array[RIGHT_BUTTON] = right_button;
 c0030a4:	008302f4 	movhi	r2,3083
 c0030a8:	10a00a04 	addi	r2,r2,-32728
 c0030ac:	e0ffe817 	ldw	r3,-96(fp)
 c0030b0:	10c02815 	stw	r3,160(r2)
 c0030b4:	e0ffe917 	ldw	r3,-92(fp)
 c0030b8:	10c02915 	stw	r3,164(r2)
 c0030bc:	e0ffea17 	ldw	r3,-88(fp)
 c0030c0:	10c02a15 	stw	r3,168(r2)
 c0030c4:	e0ffeb17 	ldw	r3,-84(fp)
 c0030c8:	10c02b15 	stw	r3,172(r2)
 c0030cc:	e0ffec17 	ldw	r3,-80(fp)
 c0030d0:	10c02c15 	stw	r3,176(r2)
 c0030d4:	e0ffed17 	ldw	r3,-76(fp)
 c0030d8:	10c02d15 	stw	r3,180(r2)
 c0030dc:	e0ffee17 	ldw	r3,-72(fp)
 c0030e0:	10c02e15 	stw	r3,184(r2)
 c0030e4:	e0ffef17 	ldw	r3,-68(fp)
 c0030e8:	10c02f15 	stw	r3,188(r2)
	button_array[UP_BUTTON] = up_button;
 c0030ec:	008302f4 	movhi	r2,3083
 c0030f0:	10a00a04 	addi	r2,r2,-32728
 c0030f4:	e0fff017 	ldw	r3,-64(fp)
 c0030f8:	10c03015 	stw	r3,192(r2)
 c0030fc:	e0fff117 	ldw	r3,-60(fp)
 c003100:	10c03115 	stw	r3,196(r2)
 c003104:	e0fff217 	ldw	r3,-56(fp)
 c003108:	10c03215 	stw	r3,200(r2)
 c00310c:	e0fff317 	ldw	r3,-52(fp)
 c003110:	10c03315 	stw	r3,204(r2)
 c003114:	e0fff417 	ldw	r3,-48(fp)
 c003118:	10c03415 	stw	r3,208(r2)
 c00311c:	e0fff517 	ldw	r3,-44(fp)
 c003120:	10c03515 	stw	r3,212(r2)
 c003124:	e0fff617 	ldw	r3,-40(fp)
 c003128:	10c03615 	stw	r3,216(r2)
 c00312c:	e0fff717 	ldw	r3,-36(fp)
 c003130:	10c03715 	stw	r3,220(r2)
	button_array[DOWN_BUTTON] = down_button;
 c003134:	008302f4 	movhi	r2,3083
 c003138:	10a00a04 	addi	r2,r2,-32728
 c00313c:	e0fff817 	ldw	r3,-32(fp)
 c003140:	10c03815 	stw	r3,224(r2)
 c003144:	e0fff917 	ldw	r3,-28(fp)
 c003148:	10c03915 	stw	r3,228(r2)
 c00314c:	e0fffa17 	ldw	r3,-24(fp)
 c003150:	10c03a15 	stw	r3,232(r2)
 c003154:	e0fffb17 	ldw	r3,-20(fp)
 c003158:	10c03b15 	stw	r3,236(r2)
 c00315c:	e0fffc17 	ldw	r3,-16(fp)
 c003160:	10c03c15 	stw	r3,240(r2)
 c003164:	e0fffd17 	ldw	r3,-12(fp)
 c003168:	10c03d15 	stw	r3,244(r2)
 c00316c:	e0fffe17 	ldw	r3,-8(fp)
 c003170:	10c03e15 	stw	r3,248(r2)
 c003174:	e0ffff17 	ldw	r3,-4(fp)
 c003178:	10c03f15 	stw	r3,252(r2)

    print_display(LIME,CYAN,WHITE,RED,RED);
 c00317c:	00800c04 	movi	r2,48
 c003180:	d8800015 	stw	r2,0(sp)
 c003184:	01000304 	movi	r4,12
 c003188:	014003c4 	movi	r5,15
 c00318c:	01800fc4 	movi	r6,63
 c003190:	01c00c04 	movi	r7,48
 c003194:	c0016340 	call	c001634 <print_display>

}
 c003198:	e037883a 	mov	sp,fp
 c00319c:	dfc00117 	ldw	ra,4(sp)
 c0031a0:	df000017 	ldw	fp,0(sp)
 c0031a4:	dec00204 	addi	sp,sp,8
 c0031a8:	f800283a 	ret

0c0031ac <proccess_buttons>:

int proccess_buttons(int timeout_usec){
 c0031ac:	defffc04 	addi	sp,sp,-16
 c0031b0:	dfc00315 	stw	ra,12(sp)
 c0031b4:	df000215 	stw	fp,8(sp)
 c0031b8:	df000204 	addi	fp,sp,8
 c0031bc:	e13fff15 	stw	r4,-4(fp)
    int pressed_button = poll_touch(timeout_usec);
 c0031c0:	e13fff17 	ldw	r4,-4(fp)
 c0031c4:	c0028bc0 	call	c0028bc <poll_touch>
 c0031c8:	e0bffe15 	stw	r2,-8(fp)

    if (pressed_button < 4)
 c0031cc:	e0bffe17 	ldw	r2,-8(fp)
 c0031d0:	10800108 	cmpgei	r2,r2,4
 c0031d4:	1000011e 	bne	r2,zero,c0031dc <proccess_buttons+0x30>
    {
    	buttons_not_pressed();
 c0031d8:	c0036cc0 	call	c0036cc <buttons_not_pressed>
    }
    if (pressed_button == -1)
 c0031dc:	e0bffe17 	ldw	r2,-8(fp)
 c0031e0:	10bfffd8 	cmpnei	r2,r2,-1
 c0031e4:	1000021e 	bne	r2,zero,c0031f0 <proccess_buttons+0x44>
    {
        return 0;
 c0031e8:	0005883a 	mov	r2,zero
 c0031ec:	00000906 	br	c003214 <proccess_buttons+0x68>
    }
    else
    {
        button_array[pressed_button].func();
 c0031f0:	008302f4 	movhi	r2,3083
 c0031f4:	10a00a04 	addi	r2,r2,-32728
 c0031f8:	e0fffe17 	ldw	r3,-8(fp)
 c0031fc:	1806917a 	slli	r3,r3,5
 c003200:	10c5883a 	add	r2,r2,r3
 c003204:	10800604 	addi	r2,r2,24
 c003208:	10800017 	ldw	r2,0(r2)
 c00320c:	103ee83a 	callr	r2
        return 1;
 c003210:	00800044 	movi	r2,1
    }
}
 c003214:	e037883a 	mov	sp,fp
 c003218:	dfc00117 	ldw	ra,4(sp)
 c00321c:	df000017 	ldw	fp,0(sp)
 c003220:	dec00204 	addi	sp,sp,8
 c003224:	f800283a 	ret

0c003228 <manual_callback>:

void manual_callback()
{
 c003228:	defffe04 	addi	sp,sp,-8
 c00322c:	dfc00115 	stw	ra,4(sp)
 c003230:	df000015 	stw	fp,0(sp)
 c003234:	d839883a 	mov	fp,sp
	if(button_array[MANUAL_BUTTON].toggled == 0)
 c003238:	008302f4 	movhi	r2,3083
 c00323c:	10a00a04 	addi	r2,r2,-32728
 c003240:	10800717 	ldw	r2,28(r2)
 c003244:	1000161e 	bne	r2,zero,c0032a0 <manual_callback+0x78>
	{
		draw_button(manual_pressed,WHITE);
 c003248:	01000204 	movi	r4,8
 c00324c:	01400fc4 	movi	r5,63
 c003250:	c0016cc0 	call	c0016cc <draw_button>
		draw_button(automatic,CYAN);
 c003254:	01000044 	movi	r4,1
 c003258:	014003c4 	movi	r5,15
 c00325c:	c0016cc0 	call	c0016cc <draw_button>
		draw_button(security,CYAN);
 c003260:	01000084 	movi	r4,2
 c003264:	014003c4 	movi	r5,15
 c003268:	c0016cc0 	call	c0016cc <draw_button>
		button_array[MANUAL_BUTTON].toggled = 1;
 c00326c:	008302f4 	movhi	r2,3083
 c003270:	10a00a04 	addi	r2,r2,-32728
 c003274:	00c00044 	movi	r3,1
 c003278:	10c00715 	stw	r3,28(r2)
		button_array[AUTOMATIC_BUTTON].toggled = 0;
 c00327c:	008302f4 	movhi	r2,3083
 c003280:	10a00a04 	addi	r2,r2,-32728
 c003284:	10000f15 	stw	zero,60(r2)
		button_array[SECURITY_BUTTON].toggled = 0;
 c003288:	008302f4 	movhi	r2,3083
 c00328c:	10a00a04 	addi	r2,r2,-32728
 c003290:	10001715 	stw	zero,92(r2)
		printf("GOING TO MANUAL MODE\n");
 c003294:	010300b4 	movhi	r4,3074
 c003298:	21084804 	addi	r4,r4,8480
 c00329c:	c0099180 	call	c009918 <puts>
		//go_to_security_mode();
	}

}
 c0032a0:	e037883a 	mov	sp,fp
 c0032a4:	dfc00117 	ldw	ra,4(sp)
 c0032a8:	df000017 	ldw	fp,0(sp)
 c0032ac:	dec00204 	addi	sp,sp,8
 c0032b0:	f800283a 	ret

0c0032b4 <automatic_callback>:

void automatic_callback()
{
 c0032b4:	defffe04 	addi	sp,sp,-8
 c0032b8:	dfc00115 	stw	ra,4(sp)
 c0032bc:	df000015 	stw	fp,0(sp)
 c0032c0:	d839883a 	mov	fp,sp
	if(button_array[AUTOMATIC_BUTTON].toggled == 0)
 c0032c4:	008302f4 	movhi	r2,3083
 c0032c8:	10a00a04 	addi	r2,r2,-32728
 c0032cc:	10800f17 	ldw	r2,60(r2)
 c0032d0:	1000161e 	bne	r2,zero,c00332c <automatic_callback+0x78>
	{
		draw_button(manual,CYAN);
 c0032d4:	0009883a 	mov	r4,zero
 c0032d8:	014003c4 	movi	r5,15
 c0032dc:	c0016cc0 	call	c0016cc <draw_button>
		draw_button(automatic_pressed,WHITE);
 c0032e0:	01000244 	movi	r4,9
 c0032e4:	01400fc4 	movi	r5,63
 c0032e8:	c0016cc0 	call	c0016cc <draw_button>
		draw_button(security,CYAN);
 c0032ec:	01000084 	movi	r4,2
 c0032f0:	014003c4 	movi	r5,15
 c0032f4:	c0016cc0 	call	c0016cc <draw_button>
		button_array[MANUAL_BUTTON].toggled = 0;
 c0032f8:	008302f4 	movhi	r2,3083
 c0032fc:	10a00a04 	addi	r2,r2,-32728
 c003300:	10000715 	stw	zero,28(r2)
		button_array[AUTOMATIC_BUTTON].toggled = 1;
 c003304:	008302f4 	movhi	r2,3083
 c003308:	10a00a04 	addi	r2,r2,-32728
 c00330c:	00c00044 	movi	r3,1
 c003310:	10c00f15 	stw	r3,60(r2)
		button_array[SECURITY_BUTTON].toggled = 0;
 c003314:	008302f4 	movhi	r2,3083
 c003318:	10a00a04 	addi	r2,r2,-32728
 c00331c:	10001715 	stw	zero,92(r2)
		printf("GOING TO AUTOMATIC MODE\n");
 c003320:	010300b4 	movhi	r4,3074
 c003324:	21084e04 	addi	r4,r4,8504
 c003328:	c0099180 	call	c009918 <puts>
		//go_to_automatic_mode();
	}
}
 c00332c:	e037883a 	mov	sp,fp
 c003330:	dfc00117 	ldw	ra,4(sp)
 c003334:	df000017 	ldw	fp,0(sp)
 c003338:	dec00204 	addi	sp,sp,8
 c00333c:	f800283a 	ret

0c003340 <security_callback>:

void security_callback()
{
 c003340:	defffe04 	addi	sp,sp,-8
 c003344:	dfc00115 	stw	ra,4(sp)
 c003348:	df000015 	stw	fp,0(sp)
 c00334c:	d839883a 	mov	fp,sp
	if(button_array[SECURITY_BUTTON].toggled == 0)
 c003350:	008302f4 	movhi	r2,3083
 c003354:	10a00a04 	addi	r2,r2,-32728
 c003358:	10801717 	ldw	r2,92(r2)
 c00335c:	1000161e 	bne	r2,zero,c0033b8 <security_callback+0x78>
	{
		draw_button(manual,CYAN);
 c003360:	0009883a 	mov	r4,zero
 c003364:	014003c4 	movi	r5,15
 c003368:	c0016cc0 	call	c0016cc <draw_button>
		draw_button(automatic,CYAN);
 c00336c:	01000044 	movi	r4,1
 c003370:	014003c4 	movi	r5,15
 c003374:	c0016cc0 	call	c0016cc <draw_button>
		draw_button(security_pressed,WHITE);
 c003378:	01000284 	movi	r4,10
 c00337c:	01400fc4 	movi	r5,63
 c003380:	c0016cc0 	call	c0016cc <draw_button>
		button_array[MANUAL_BUTTON].toggled = 0;
 c003384:	008302f4 	movhi	r2,3083
 c003388:	10a00a04 	addi	r2,r2,-32728
 c00338c:	10000715 	stw	zero,28(r2)
		button_array[AUTOMATIC_BUTTON].toggled = 0;
 c003390:	008302f4 	movhi	r2,3083
 c003394:	10a00a04 	addi	r2,r2,-32728
 c003398:	10000f15 	stw	zero,60(r2)
		button_array[SECURITY_BUTTON].toggled = 1;
 c00339c:	008302f4 	movhi	r2,3083
 c0033a0:	10a00a04 	addi	r2,r2,-32728
 c0033a4:	00c00044 	movi	r3,1
 c0033a8:	10c01715 	stw	r3,92(r2)
		//go_to_security_mode();
		printf("GOING TO SECURITY MODE\n");
 c0033ac:	010300b4 	movhi	r4,3074
 c0033b0:	21085404 	addi	r4,r4,8528
 c0033b4:	c0099180 	call	c009918 <puts>
	}
}
 c0033b8:	e037883a 	mov	sp,fp
 c0033bc:	dfc00117 	ldw	ra,4(sp)
 c0033c0:	df000017 	ldw	fp,0(sp)
 c0033c4:	dec00204 	addi	sp,sp,8
 c0033c8:	f800283a 	ret

0c0033cc <fire_callback>:

void fire_callback()
{
 c0033cc:	defffe04 	addi	sp,sp,-8
 c0033d0:	dfc00115 	stw	ra,4(sp)
 c0033d4:	df000015 	stw	fp,0(sp)
 c0033d8:	d839883a 	mov	fp,sp
	if (button_array[FIRE_BUTTON].toggled == 0)
 c0033dc:	008302f4 	movhi	r2,3083
 c0033e0:	10a00a04 	addi	r2,r2,-32728
 c0033e4:	10801f17 	ldw	r2,124(r2)
 c0033e8:	10000a1e 	bne	r2,zero,c003414 <fire_callback+0x48>
	{
		draw_button(fire_pressed,MAROON);
 c0033ec:	010002c4 	movi	r4,11
 c0033f0:	01400804 	movi	r5,32
 c0033f4:	c0016cc0 	call	c0016cc <draw_button>
		printf("FIRE\n");
 c0033f8:	010300b4 	movhi	r4,3074
 c0033fc:	21085a04 	addi	r4,r4,8552
 c003400:	c0099180 	call	c009918 <puts>
		button_array[FIRE_BUTTON].toggled = 1;
 c003404:	008302f4 	movhi	r2,3083
 c003408:	10a00a04 	addi	r2,r2,-32728
 c00340c:	00c00044 	movi	r3,1
 c003410:	10c01f15 	stw	r3,124(r2)
	}
	retrieve_and_process_image();
 c003414:	c00299c0 	call	c00299c <retrieve_and_process_image>
}
 c003418:	e037883a 	mov	sp,fp
 c00341c:	dfc00117 	ldw	ra,4(sp)
 c003420:	df000017 	ldw	fp,0(sp)
 c003424:	dec00204 	addi	sp,sp,8
 c003428:	f800283a 	ret

0c00342c <left_callback>:

void left_callback()
{
 c00342c:	defffe04 	addi	sp,sp,-8
 c003430:	dfc00115 	stw	ra,4(sp)
 c003434:	df000015 	stw	fp,0(sp)
 c003438:	d839883a 	mov	fp,sp
    if (button_array[LEFT_BUTTON].toggled == 0)
 c00343c:	008302f4 	movhi	r2,3083
 c003440:	10a00a04 	addi	r2,r2,-32728
 c003444:	10802717 	ldw	r2,156(r2)
 c003448:	10001d1e 	bne	r2,zero,c0034c0 <left_callback+0x94>
	{
		draw_button(left_pressed,FORESTGREEN);
 c00344c:	01000304 	movi	r4,12
 c003450:	01400204 	movi	r5,8
 c003454:	c0016cc0 	call	c0016cc <draw_button>
		draw_button(right,LIME);
 c003458:	01000144 	movi	r4,5
 c00345c:	01400304 	movi	r5,12
 c003460:	c0016cc0 	call	c0016cc <draw_button>
		draw_button(up,LIME);
 c003464:	010001c4 	movi	r4,7
 c003468:	01400304 	movi	r5,12
 c00346c:	c0016cc0 	call	c0016cc <draw_button>
		draw_button(down,LIME);
 c003470:	01000184 	movi	r4,6
 c003474:	01400304 	movi	r5,12
 c003478:	c0016cc0 	call	c0016cc <draw_button>
		move_left();
 c00347c:	c0075240 	call	c007524 <move_left>
		printf("ROTATING LEFT\n");
 c003480:	010300b4 	movhi	r4,3074
 c003484:	21085c04 	addi	r4,r4,8560
 c003488:	c0099180 	call	c009918 <puts>

		button_array[LEFT_BUTTON].toggled = 1;
 c00348c:	008302f4 	movhi	r2,3083
 c003490:	10a00a04 	addi	r2,r2,-32728
 c003494:	00c00044 	movi	r3,1
 c003498:	10c02715 	stw	r3,156(r2)
		button_array[RIGHT_BUTTON].toggled = 0;
 c00349c:	008302f4 	movhi	r2,3083
 c0034a0:	10a00a04 	addi	r2,r2,-32728
 c0034a4:	10002f15 	stw	zero,188(r2)
		button_array[UP_BUTTON].toggled = 0;
 c0034a8:	008302f4 	movhi	r2,3083
 c0034ac:	10a00a04 	addi	r2,r2,-32728
 c0034b0:	10003715 	stw	zero,220(r2)
		button_array[DOWN_BUTTON].toggled = 0;
 c0034b4:	008302f4 	movhi	r2,3083
 c0034b8:	10a00a04 	addi	r2,r2,-32728
 c0034bc:	10003f15 	stw	zero,252(r2)
	}
}
 c0034c0:	e037883a 	mov	sp,fp
 c0034c4:	dfc00117 	ldw	ra,4(sp)
 c0034c8:	df000017 	ldw	fp,0(sp)
 c0034cc:	dec00204 	addi	sp,sp,8
 c0034d0:	f800283a 	ret

0c0034d4 <right_callback>:
void right_callback()
{
 c0034d4:	defffe04 	addi	sp,sp,-8
 c0034d8:	dfc00115 	stw	ra,4(sp)
 c0034dc:	df000015 	stw	fp,0(sp)
 c0034e0:	d839883a 	mov	fp,sp
    if(button_array[RIGHT_BUTTON].toggled == 0)
 c0034e4:	008302f4 	movhi	r2,3083
 c0034e8:	10a00a04 	addi	r2,r2,-32728
 c0034ec:	10802f17 	ldw	r2,188(r2)
 c0034f0:	10001d1e 	bne	r2,zero,c003568 <right_callback+0x94>
	{
		draw_button(left,LIME);
 c0034f4:	01000104 	movi	r4,4
 c0034f8:	01400304 	movi	r5,12
 c0034fc:	c0016cc0 	call	c0016cc <draw_button>
		draw_button(right_pressed,FORESTGREEN);
 c003500:	01000344 	movi	r4,13
 c003504:	01400204 	movi	r5,8
 c003508:	c0016cc0 	call	c0016cc <draw_button>
		draw_button(up,LIME);
 c00350c:	010001c4 	movi	r4,7
 c003510:	01400304 	movi	r5,12
 c003514:	c0016cc0 	call	c0016cc <draw_button>
		draw_button(down,LIME);
 c003518:	01000184 	movi	r4,6
 c00351c:	01400304 	movi	r5,12
 c003520:	c0016cc0 	call	c0016cc <draw_button>
		move_right();
 c003524:	c0075c80 	call	c0075c8 <move_right>
		printf("ROTATING RIGHT\n");
 c003528:	010300b4 	movhi	r4,3074
 c00352c:	21086004 	addi	r4,r4,8576
 c003530:	c0099180 	call	c009918 <puts>

		button_array[LEFT_BUTTON].toggled = 0;
 c003534:	008302f4 	movhi	r2,3083
 c003538:	10a00a04 	addi	r2,r2,-32728
 c00353c:	10002715 	stw	zero,156(r2)
		button_array[RIGHT_BUTTON].toggled = 1;
 c003540:	008302f4 	movhi	r2,3083
 c003544:	10a00a04 	addi	r2,r2,-32728
 c003548:	00c00044 	movi	r3,1
 c00354c:	10c02f15 	stw	r3,188(r2)
		button_array[UP_BUTTON].toggled = 0;
 c003550:	008302f4 	movhi	r2,3083
 c003554:	10a00a04 	addi	r2,r2,-32728
 c003558:	10003715 	stw	zero,220(r2)
		button_array[DOWN_BUTTON].toggled = 0;
 c00355c:	008302f4 	movhi	r2,3083
 c003560:	10a00a04 	addi	r2,r2,-32728
 c003564:	10003f15 	stw	zero,252(r2)
	}
}
 c003568:	e037883a 	mov	sp,fp
 c00356c:	dfc00117 	ldw	ra,4(sp)
 c003570:	df000017 	ldw	fp,0(sp)
 c003574:	dec00204 	addi	sp,sp,8
 c003578:	f800283a 	ret

0c00357c <up_callback>:
void up_callback()
{
 c00357c:	defffe04 	addi	sp,sp,-8
 c003580:	dfc00115 	stw	ra,4(sp)
 c003584:	df000015 	stw	fp,0(sp)
 c003588:	d839883a 	mov	fp,sp
	if(button_array[UP_BUTTON].toggled == 0)
 c00358c:	008302f4 	movhi	r2,3083
 c003590:	10a00a04 	addi	r2,r2,-32728
 c003594:	10803717 	ldw	r2,220(r2)
 c003598:	10001d1e 	bne	r2,zero,c003610 <up_callback+0x94>
	{
		draw_button(left,LIME);
 c00359c:	01000104 	movi	r4,4
 c0035a0:	01400304 	movi	r5,12
 c0035a4:	c0016cc0 	call	c0016cc <draw_button>
		draw_button(right,LIME);
 c0035a8:	01000144 	movi	r4,5
 c0035ac:	01400304 	movi	r5,12
 c0035b0:	c0016cc0 	call	c0016cc <draw_button>
		draw_button(up_pressed,FORESTGREEN);
 c0035b4:	010003c4 	movi	r4,15
 c0035b8:	01400204 	movi	r5,8
 c0035bc:	c0016cc0 	call	c0016cc <draw_button>
		draw_button(down,LIME);
 c0035c0:	01000184 	movi	r4,6
 c0035c4:	01400304 	movi	r5,12
 c0035c8:	c0016cc0 	call	c0016cc <draw_button>
		move_up();
 c0035cc:	c0073b00 	call	c0073b0 <move_up>
		printf("ROTATING UP\n");
 c0035d0:	010300b4 	movhi	r4,3074
 c0035d4:	21086404 	addi	r4,r4,8592
 c0035d8:	c0099180 	call	c009918 <puts>

		button_array[LEFT_BUTTON].toggled = 0;
 c0035dc:	008302f4 	movhi	r2,3083
 c0035e0:	10a00a04 	addi	r2,r2,-32728
 c0035e4:	10002715 	stw	zero,156(r2)
		button_array[RIGHT_BUTTON].toggled = 0;
 c0035e8:	008302f4 	movhi	r2,3083
 c0035ec:	10a00a04 	addi	r2,r2,-32728
 c0035f0:	10002f15 	stw	zero,188(r2)
		button_array[UP_BUTTON].toggled = 1;
 c0035f4:	008302f4 	movhi	r2,3083
 c0035f8:	10a00a04 	addi	r2,r2,-32728
 c0035fc:	00c00044 	movi	r3,1
 c003600:	10c03715 	stw	r3,220(r2)
		button_array[DOWN_BUTTON].toggled = 0;
 c003604:	008302f4 	movhi	r2,3083
 c003608:	10a00a04 	addi	r2,r2,-32728
 c00360c:	10003f15 	stw	zero,252(r2)
	}
}
 c003610:	e037883a 	mov	sp,fp
 c003614:	dfc00117 	ldw	ra,4(sp)
 c003618:	df000017 	ldw	fp,0(sp)
 c00361c:	dec00204 	addi	sp,sp,8
 c003620:	f800283a 	ret

0c003624 <down_callback>:
void down_callback()
{
 c003624:	defffe04 	addi	sp,sp,-8
 c003628:	dfc00115 	stw	ra,4(sp)
 c00362c:	df000015 	stw	fp,0(sp)
 c003630:	d839883a 	mov	fp,sp
	if(button_array[DOWN_BUTTON].toggled == 0)
 c003634:	008302f4 	movhi	r2,3083
 c003638:	10a00a04 	addi	r2,r2,-32728
 c00363c:	10803f17 	ldw	r2,252(r2)
 c003640:	10001d1e 	bne	r2,zero,c0036b8 <down_callback+0x94>
	{
		draw_button(left,LIME);
 c003644:	01000104 	movi	r4,4
 c003648:	01400304 	movi	r5,12
 c00364c:	c0016cc0 	call	c0016cc <draw_button>
		draw_button(right,LIME);
 c003650:	01000144 	movi	r4,5
 c003654:	01400304 	movi	r5,12
 c003658:	c0016cc0 	call	c0016cc <draw_button>
		draw_button(up,LIME);
 c00365c:	010001c4 	movi	r4,7
 c003660:	01400304 	movi	r5,12
 c003664:	c0016cc0 	call	c0016cc <draw_button>
		draw_button(down_pressed,FORESTGREEN);
 c003668:	01000384 	movi	r4,14
 c00366c:	01400204 	movi	r5,8
 c003670:	c0016cc0 	call	c0016cc <draw_button>
		move_down();
 c003674:	c0074680 	call	c007468 <move_down>
		printf("ROTATING DOWN\n");
 c003678:	010300b4 	movhi	r4,3074
 c00367c:	21086704 	addi	r4,r4,8604
 c003680:	c0099180 	call	c009918 <puts>

		button_array[LEFT_BUTTON].toggled = 0;
 c003684:	008302f4 	movhi	r2,3083
 c003688:	10a00a04 	addi	r2,r2,-32728
 c00368c:	10002715 	stw	zero,156(r2)
		button_array[RIGHT_BUTTON].toggled = 0;
 c003690:	008302f4 	movhi	r2,3083
 c003694:	10a00a04 	addi	r2,r2,-32728
 c003698:	10002f15 	stw	zero,188(r2)
		button_array[UP_BUTTON].toggled = 0;
 c00369c:	008302f4 	movhi	r2,3083
 c0036a0:	10a00a04 	addi	r2,r2,-32728
 c0036a4:	10003715 	stw	zero,220(r2)
		button_array[DOWN_BUTTON].toggled = 1;
 c0036a8:	008302f4 	movhi	r2,3083
 c0036ac:	10a00a04 	addi	r2,r2,-32728
 c0036b0:	00c00044 	movi	r3,1
 c0036b4:	10c03f15 	stw	r3,252(r2)
	}
}
 c0036b8:	e037883a 	mov	sp,fp
 c0036bc:	dfc00117 	ldw	ra,4(sp)
 c0036c0:	df000017 	ldw	fp,0(sp)
 c0036c4:	dec00204 	addi	sp,sp,8
 c0036c8:	f800283a 	ret

0c0036cc <buttons_not_pressed>:


void buttons_not_pressed()
{
 c0036cc:	defffe04 	addi	sp,sp,-8
 c0036d0:	dfc00115 	stw	ra,4(sp)
 c0036d4:	df000015 	stw	fp,0(sp)
 c0036d8:	d839883a 	mov	fp,sp
	draw_button(fire,RED);
 c0036dc:	010000c4 	movi	r4,3
 c0036e0:	01400c04 	movi	r5,48
 c0036e4:	c0016cc0 	call	c0016cc <draw_button>
	draw_button(left,LIME);
 c0036e8:	01000104 	movi	r4,4
 c0036ec:	01400304 	movi	r5,12
 c0036f0:	c0016cc0 	call	c0016cc <draw_button>
	draw_button(right,LIME);
 c0036f4:	01000144 	movi	r4,5
 c0036f8:	01400304 	movi	r5,12
 c0036fc:	c0016cc0 	call	c0016cc <draw_button>
	draw_button(up,LIME);
 c003700:	010001c4 	movi	r4,7
 c003704:	01400304 	movi	r5,12
 c003708:	c0016cc0 	call	c0016cc <draw_button>
	draw_button(down,LIME);
 c00370c:	01000184 	movi	r4,6
 c003710:	01400304 	movi	r5,12
 c003714:	c0016cc0 	call	c0016cc <draw_button>

	button_array[FIRE_BUTTON].toggled = 0;
 c003718:	008302f4 	movhi	r2,3083
 c00371c:	10a00a04 	addi	r2,r2,-32728
 c003720:	10001f15 	stw	zero,124(r2)
	button_array[LEFT_BUTTON].toggled = 0;
 c003724:	008302f4 	movhi	r2,3083
 c003728:	10a00a04 	addi	r2,r2,-32728
 c00372c:	10002715 	stw	zero,156(r2)
	button_array[RIGHT_BUTTON].toggled = 0;
 c003730:	008302f4 	movhi	r2,3083
 c003734:	10a00a04 	addi	r2,r2,-32728
 c003738:	10002f15 	stw	zero,188(r2)
	button_array[UP_BUTTON].toggled = 0;
 c00373c:	008302f4 	movhi	r2,3083
 c003740:	10a00a04 	addi	r2,r2,-32728
 c003744:	10003715 	stw	zero,220(r2)
	button_array[DOWN_BUTTON].toggled = 0;
 c003748:	008302f4 	movhi	r2,3083
 c00374c:	10a00a04 	addi	r2,r2,-32728
 c003750:	10003f15 	stw	zero,252(r2)
}
 c003754:	e037883a 	mov	sp,fp
 c003758:	dfc00117 	ldw	ra,4(sp)
 c00375c:	df000017 	ldw	fp,0(sp)
 c003760:	dec00204 	addi	sp,sp,8
 c003764:	f800283a 	ret

0c003768 <njClip>:
static const char njZZ[64] = { 0, 1, 8, 16, 9, 2, 3, 10, 17, 24, 32, 25, 18,
11, 4, 5, 12, 19, 26, 33, 40, 48, 41, 34, 27, 20, 13, 6, 7, 14, 21, 28, 35,
42, 49, 56, 57, 50, 43, 36, 29, 22, 15, 23, 30, 37, 44, 51, 58, 59, 52, 45,
38, 31, 39, 46, 53, 60, 61, 54, 47, 55, 62, 63 };

NJ_FORCE_INLINE unsigned char njClip(const int x) {
 c003768:	defffe04 	addi	sp,sp,-8
 c00376c:	df000115 	stw	fp,4(sp)
 c003770:	df000104 	addi	fp,sp,4
 c003774:	e13fff15 	stw	r4,-4(fp)
    return (x < 0) ? 0 : ((x > 0xFF) ? 0xFF : (unsigned char) x);
 c003778:	e0bfff17 	ldw	r2,-4(fp)
 c00377c:	10000716 	blt	r2,zero,c00379c <njClip+0x34>
 c003780:	e0bfff17 	ldw	r2,-4(fp)
 c003784:	10804008 	cmpgei	r2,r2,256
 c003788:	1000021e 	bne	r2,zero,c003794 <njClip+0x2c>
 c00378c:	e0bfff17 	ldw	r2,-4(fp)
 c003790:	00000306 	br	c0037a0 <njClip+0x38>
 c003794:	00bfffc4 	movi	r2,-1
 c003798:	00000106 	br	c0037a0 <njClip+0x38>
 c00379c:	0005883a 	mov	r2,zero
}
 c0037a0:	e037883a 	mov	sp,fp
 c0037a4:	df000017 	ldw	fp,0(sp)
 c0037a8:	dec00104 	addi	sp,sp,4
 c0037ac:	f800283a 	ret

0c0037b0 <njRowIDCT>:
#define W3 2408
#define W5 1609
#define W6 1108
#define W7 565

NJ_INLINE void njRowIDCT(int* blk) {
 c0037b0:	defff504 	addi	sp,sp,-44
 c0037b4:	df000a15 	stw	fp,40(sp)
 c0037b8:	df000a04 	addi	fp,sp,40
 c0037bc:	e13fff15 	stw	r4,-4(fp)
    int x0, x1, x2, x3, x4, x5, x6, x7, x8;
    if (!((x1 = blk[4] << 11)
 c0037c0:	e0bfff17 	ldw	r2,-4(fp)
 c0037c4:	10800404 	addi	r2,r2,16
 c0037c8:	10800017 	ldw	r2,0(r2)
 c0037cc:	100492fa 	slli	r2,r2,11
 c0037d0:	e0bff615 	stw	r2,-40(fp)
        | (x2 = blk[6])
 c0037d4:	e0bfff17 	ldw	r2,-4(fp)
 c0037d8:	10800617 	ldw	r2,24(r2)
 c0037dc:	e0bff715 	stw	r2,-36(fp)
 c0037e0:	e0fff617 	ldw	r3,-40(fp)
 c0037e4:	e0bff717 	ldw	r2,-36(fp)
 c0037e8:	1886b03a 	or	r3,r3,r2
        | (x3 = blk[2])
 c0037ec:	e0bfff17 	ldw	r2,-4(fp)
 c0037f0:	10800217 	ldw	r2,8(r2)
 c0037f4:	e0bff815 	stw	r2,-32(fp)
 c0037f8:	e0bff817 	ldw	r2,-32(fp)
 c0037fc:	1886b03a 	or	r3,r3,r2
        | (x4 = blk[1])
 c003800:	e0bfff17 	ldw	r2,-4(fp)
 c003804:	10800117 	ldw	r2,4(r2)
 c003808:	e0bff915 	stw	r2,-28(fp)
 c00380c:	e0bff917 	ldw	r2,-28(fp)
 c003810:	1886b03a 	or	r3,r3,r2
        | (x5 = blk[7])
 c003814:	e0bfff17 	ldw	r2,-4(fp)
 c003818:	10800717 	ldw	r2,28(r2)
 c00381c:	e0bffa15 	stw	r2,-24(fp)
 c003820:	e0bffa17 	ldw	r2,-24(fp)
 c003824:	1886b03a 	or	r3,r3,r2
        | (x6 = blk[5])
 c003828:	e0bfff17 	ldw	r2,-4(fp)
 c00382c:	10800517 	ldw	r2,20(r2)
 c003830:	e0bffb15 	stw	r2,-20(fp)
 c003834:	e0bffb17 	ldw	r2,-20(fp)
 c003838:	1886b03a 	or	r3,r3,r2
        | (x7 = blk[3])))
 c00383c:	e0bfff17 	ldw	r2,-4(fp)
 c003840:	10800317 	ldw	r2,12(r2)
 c003844:	e0bffc15 	stw	r2,-16(fp)
 c003848:	e0bffc17 	ldw	r2,-16(fp)
 c00384c:	1884b03a 	or	r2,r3,r2
#define W6 1108
#define W7 565

NJ_INLINE void njRowIDCT(int* blk) {
    int x0, x1, x2, x3, x4, x5, x6, x7, x8;
    if (!((x1 = blk[4] << 11)
 c003850:	1000221e 	bne	r2,zero,c0038dc <njRowIDCT+0x12c>
        | (x4 = blk[1])
        | (x5 = blk[7])
        | (x6 = blk[5])
        | (x7 = blk[3])))
    {
        blk[0] = blk[1] = blk[2] = blk[3] = blk[4] = blk[5] = blk[6] = blk[7] = blk[0] << 3;
 c003854:	e0bfff17 	ldw	r2,-4(fp)
 c003858:	10800104 	addi	r2,r2,4
 c00385c:	e0ffff17 	ldw	r3,-4(fp)
 c003860:	18c00204 	addi	r3,r3,8
 c003864:	e13fff17 	ldw	r4,-4(fp)
 c003868:	21000304 	addi	r4,r4,12
 c00386c:	e17fff17 	ldw	r5,-4(fp)
 c003870:	29400404 	addi	r5,r5,16
 c003874:	e1bfff17 	ldw	r6,-4(fp)
 c003878:	31800504 	addi	r6,r6,20
 c00387c:	e1ffff17 	ldw	r7,-4(fp)
 c003880:	39c00604 	addi	r7,r7,24
 c003884:	e23fff17 	ldw	r8,-4(fp)
 c003888:	42000704 	addi	r8,r8,28
 c00388c:	e27fff17 	ldw	r9,-4(fp)
 c003890:	4a400017 	ldw	r9,0(r9)
 c003894:	481290fa 	slli	r9,r9,3
 c003898:	42400015 	stw	r9,0(r8)
 c00389c:	42000017 	ldw	r8,0(r8)
 c0038a0:	3a000015 	stw	r8,0(r7)
 c0038a4:	39c00017 	ldw	r7,0(r7)
 c0038a8:	31c00015 	stw	r7,0(r6)
 c0038ac:	31800017 	ldw	r6,0(r6)
 c0038b0:	29800015 	stw	r6,0(r5)
 c0038b4:	29400017 	ldw	r5,0(r5)
 c0038b8:	21400015 	stw	r5,0(r4)
 c0038bc:	21000017 	ldw	r4,0(r4)
 c0038c0:	19000015 	stw	r4,0(r3)
 c0038c4:	18c00017 	ldw	r3,0(r3)
 c0038c8:	10c00015 	stw	r3,0(r2)
 c0038cc:	10c00017 	ldw	r3,0(r2)
 c0038d0:	e0bfff17 	ldw	r2,-4(fp)
 c0038d4:	10c00015 	stw	r3,0(r2)
        return;
 c0038d8:	00009f06 	br	c003b58 <njRowIDCT+0x3a8>
    }
    x0 = (blk[0] << 11) + 128;
 c0038dc:	e0bfff17 	ldw	r2,-4(fp)
 c0038e0:	10800017 	ldw	r2,0(r2)
 c0038e4:	100492fa 	slli	r2,r2,11
 c0038e8:	10802004 	addi	r2,r2,128
 c0038ec:	e0bffd15 	stw	r2,-12(fp)
    x8 = W7 * (x4 + x5);
 c0038f0:	e0fff917 	ldw	r3,-28(fp)
 c0038f4:	e0bffa17 	ldw	r2,-24(fp)
 c0038f8:	1885883a 	add	r2,r3,r2
 c0038fc:	10808d64 	muli	r2,r2,565
 c003900:	e0bffe15 	stw	r2,-8(fp)
    x4 = x8 + (W1 - W7) * x4;
 c003904:	e0bff917 	ldw	r2,-28(fp)
 c003908:	10c23924 	muli	r3,r2,2276
 c00390c:	e0bffe17 	ldw	r2,-8(fp)
 c003910:	1885883a 	add	r2,r3,r2
 c003914:	e0bff915 	stw	r2,-28(fp)
    x5 = x8 - (W1 + W7) * x5;
 c003918:	e0bffa17 	ldw	r2,-24(fp)
 c00391c:	10fcaca4 	muli	r3,r2,-3406
 c003920:	e0bffe17 	ldw	r2,-8(fp)
 c003924:	1885883a 	add	r2,r3,r2
 c003928:	e0bffa15 	stw	r2,-24(fp)
    x8 = W3 * (x6 + x7);
 c00392c:	e0fffb17 	ldw	r3,-20(fp)
 c003930:	e0bffc17 	ldw	r2,-16(fp)
 c003934:	1885883a 	add	r2,r3,r2
 c003938:	10825a24 	muli	r2,r2,2408
 c00393c:	e0bffe15 	stw	r2,-8(fp)
    x6 = x8 - (W3 - W5) * x6;
 c003940:	e0bffb17 	ldw	r2,-20(fp)
 c003944:	10ff3864 	muli	r3,r2,-799
 c003948:	e0bffe17 	ldw	r2,-8(fp)
 c00394c:	1885883a 	add	r2,r3,r2
 c003950:	e0bffb15 	stw	r2,-20(fp)
    x7 = x8 - (W3 + W5) * x7;
 c003954:	e0bffc17 	ldw	r2,-16(fp)
 c003958:	10fc13e4 	muli	r3,r2,-4017
 c00395c:	e0bffe17 	ldw	r2,-8(fp)
 c003960:	1885883a 	add	r2,r3,r2
 c003964:	e0bffc15 	stw	r2,-16(fp)
    x8 = x0 + x1;
 c003968:	e0fffd17 	ldw	r3,-12(fp)
 c00396c:	e0bff617 	ldw	r2,-40(fp)
 c003970:	1885883a 	add	r2,r3,r2
 c003974:	e0bffe15 	stw	r2,-8(fp)
    x0 -= x1;
 c003978:	e0fffd17 	ldw	r3,-12(fp)
 c00397c:	e0bff617 	ldw	r2,-40(fp)
 c003980:	1885c83a 	sub	r2,r3,r2
 c003984:	e0bffd15 	stw	r2,-12(fp)
    x1 = W6 * (x3 + x2);
 c003988:	e0fff817 	ldw	r3,-32(fp)
 c00398c:	e0bff717 	ldw	r2,-36(fp)
 c003990:	1885883a 	add	r2,r3,r2
 c003994:	10811524 	muli	r2,r2,1108
 c003998:	e0bff615 	stw	r2,-40(fp)
    x2 = x1 - (W2 + W6) * x2;
 c00399c:	e0bff717 	ldw	r2,-36(fp)
 c0039a0:	10fc4e24 	muli	r3,r2,-3784
 c0039a4:	e0bff617 	ldw	r2,-40(fp)
 c0039a8:	1885883a 	add	r2,r3,r2
 c0039ac:	e0bff715 	stw	r2,-36(fp)
    x3 = x1 + (W2 - W6) * x3;
 c0039b0:	e0bff817 	ldw	r2,-32(fp)
 c0039b4:	10c18824 	muli	r3,r2,1568
 c0039b8:	e0bff617 	ldw	r2,-40(fp)
 c0039bc:	1885883a 	add	r2,r3,r2
 c0039c0:	e0bff815 	stw	r2,-32(fp)
    x1 = x4 + x6;
 c0039c4:	e0fff917 	ldw	r3,-28(fp)
 c0039c8:	e0bffb17 	ldw	r2,-20(fp)
 c0039cc:	1885883a 	add	r2,r3,r2
 c0039d0:	e0bff615 	stw	r2,-40(fp)
    x4 -= x6;
 c0039d4:	e0fff917 	ldw	r3,-28(fp)
 c0039d8:	e0bffb17 	ldw	r2,-20(fp)
 c0039dc:	1885c83a 	sub	r2,r3,r2
 c0039e0:	e0bff915 	stw	r2,-28(fp)
    x6 = x5 + x7;
 c0039e4:	e0fffa17 	ldw	r3,-24(fp)
 c0039e8:	e0bffc17 	ldw	r2,-16(fp)
 c0039ec:	1885883a 	add	r2,r3,r2
 c0039f0:	e0bffb15 	stw	r2,-20(fp)
    x5 -= x7;
 c0039f4:	e0fffa17 	ldw	r3,-24(fp)
 c0039f8:	e0bffc17 	ldw	r2,-16(fp)
 c0039fc:	1885c83a 	sub	r2,r3,r2
 c003a00:	e0bffa15 	stw	r2,-24(fp)
    x7 = x8 + x3;
 c003a04:	e0fffe17 	ldw	r3,-8(fp)
 c003a08:	e0bff817 	ldw	r2,-32(fp)
 c003a0c:	1885883a 	add	r2,r3,r2
 c003a10:	e0bffc15 	stw	r2,-16(fp)
    x8 -= x3;
 c003a14:	e0fffe17 	ldw	r3,-8(fp)
 c003a18:	e0bff817 	ldw	r2,-32(fp)
 c003a1c:	1885c83a 	sub	r2,r3,r2
 c003a20:	e0bffe15 	stw	r2,-8(fp)
    x3 = x0 + x2;
 c003a24:	e0fffd17 	ldw	r3,-12(fp)
 c003a28:	e0bff717 	ldw	r2,-36(fp)
 c003a2c:	1885883a 	add	r2,r3,r2
 c003a30:	e0bff815 	stw	r2,-32(fp)
    x0 -= x2;
 c003a34:	e0fffd17 	ldw	r3,-12(fp)
 c003a38:	e0bff717 	ldw	r2,-36(fp)
 c003a3c:	1885c83a 	sub	r2,r3,r2
 c003a40:	e0bffd15 	stw	r2,-12(fp)
    x2 = (181 * (x4 + x5) + 128) >> 8;
 c003a44:	e0fff917 	ldw	r3,-28(fp)
 c003a48:	e0bffa17 	ldw	r2,-24(fp)
 c003a4c:	1885883a 	add	r2,r3,r2
 c003a50:	10802d64 	muli	r2,r2,181
 c003a54:	10802004 	addi	r2,r2,128
 c003a58:	1005d23a 	srai	r2,r2,8
 c003a5c:	e0bff715 	stw	r2,-36(fp)
    x4 = (181 * (x4 - x5) + 128) >> 8;
 c003a60:	e0fff917 	ldw	r3,-28(fp)
 c003a64:	e0bffa17 	ldw	r2,-24(fp)
 c003a68:	1885c83a 	sub	r2,r3,r2
 c003a6c:	10802d64 	muli	r2,r2,181
 c003a70:	10802004 	addi	r2,r2,128
 c003a74:	1005d23a 	srai	r2,r2,8
 c003a78:	e0bff915 	stw	r2,-28(fp)
    blk[0] = (x7 + x1) >> 8;
 c003a7c:	e0fffc17 	ldw	r3,-16(fp)
 c003a80:	e0bff617 	ldw	r2,-40(fp)
 c003a84:	1885883a 	add	r2,r3,r2
 c003a88:	1007d23a 	srai	r3,r2,8
 c003a8c:	e0bfff17 	ldw	r2,-4(fp)
 c003a90:	10c00015 	stw	r3,0(r2)
    blk[1] = (x3 + x2) >> 8;
 c003a94:	e0bfff17 	ldw	r2,-4(fp)
 c003a98:	10800104 	addi	r2,r2,4
 c003a9c:	e13ff817 	ldw	r4,-32(fp)
 c003aa0:	e0fff717 	ldw	r3,-36(fp)
 c003aa4:	20c7883a 	add	r3,r4,r3
 c003aa8:	1807d23a 	srai	r3,r3,8
 c003aac:	10c00015 	stw	r3,0(r2)
    blk[2] = (x0 + x4) >> 8;
 c003ab0:	e0bfff17 	ldw	r2,-4(fp)
 c003ab4:	10800204 	addi	r2,r2,8
 c003ab8:	e13ffd17 	ldw	r4,-12(fp)
 c003abc:	e0fff917 	ldw	r3,-28(fp)
 c003ac0:	20c7883a 	add	r3,r4,r3
 c003ac4:	1807d23a 	srai	r3,r3,8
 c003ac8:	10c00015 	stw	r3,0(r2)
    blk[3] = (x8 + x6) >> 8;
 c003acc:	e0bfff17 	ldw	r2,-4(fp)
 c003ad0:	10800304 	addi	r2,r2,12
 c003ad4:	e13ffe17 	ldw	r4,-8(fp)
 c003ad8:	e0fffb17 	ldw	r3,-20(fp)
 c003adc:	20c7883a 	add	r3,r4,r3
 c003ae0:	1807d23a 	srai	r3,r3,8
 c003ae4:	10c00015 	stw	r3,0(r2)
    blk[4] = (x8 - x6) >> 8;
 c003ae8:	e0bfff17 	ldw	r2,-4(fp)
 c003aec:	10800404 	addi	r2,r2,16
 c003af0:	e13ffe17 	ldw	r4,-8(fp)
 c003af4:	e0fffb17 	ldw	r3,-20(fp)
 c003af8:	20c7c83a 	sub	r3,r4,r3
 c003afc:	1807d23a 	srai	r3,r3,8
 c003b00:	10c00015 	stw	r3,0(r2)
    blk[5] = (x0 - x4) >> 8;
 c003b04:	e0bfff17 	ldw	r2,-4(fp)
 c003b08:	10800504 	addi	r2,r2,20
 c003b0c:	e13ffd17 	ldw	r4,-12(fp)
 c003b10:	e0fff917 	ldw	r3,-28(fp)
 c003b14:	20c7c83a 	sub	r3,r4,r3
 c003b18:	1807d23a 	srai	r3,r3,8
 c003b1c:	10c00015 	stw	r3,0(r2)
    blk[6] = (x3 - x2) >> 8;
 c003b20:	e0bfff17 	ldw	r2,-4(fp)
 c003b24:	10800604 	addi	r2,r2,24
 c003b28:	e13ff817 	ldw	r4,-32(fp)
 c003b2c:	e0fff717 	ldw	r3,-36(fp)
 c003b30:	20c7c83a 	sub	r3,r4,r3
 c003b34:	1807d23a 	srai	r3,r3,8
 c003b38:	10c00015 	stw	r3,0(r2)
    blk[7] = (x7 - x1) >> 8;
 c003b3c:	e0bfff17 	ldw	r2,-4(fp)
 c003b40:	10800704 	addi	r2,r2,28
 c003b44:	e13ffc17 	ldw	r4,-16(fp)
 c003b48:	e0fff617 	ldw	r3,-40(fp)
 c003b4c:	20c7c83a 	sub	r3,r4,r3
 c003b50:	1807d23a 	srai	r3,r3,8
 c003b54:	10c00015 	stw	r3,0(r2)
}
 c003b58:	e037883a 	mov	sp,fp
 c003b5c:	df000017 	ldw	fp,0(sp)
 c003b60:	dec00104 	addi	sp,sp,4
 c003b64:	f800283a 	ret

0c003b68 <njColIDCT>:

NJ_INLINE void njColIDCT(const int* blk, unsigned char *out, int stride) {
 c003b68:	defff204 	addi	sp,sp,-56
 c003b6c:	dfc00d15 	stw	ra,52(sp)
 c003b70:	df000c15 	stw	fp,48(sp)
 c003b74:	df000c04 	addi	fp,sp,48
 c003b78:	e13ffd15 	stw	r4,-12(fp)
 c003b7c:	e17ffe15 	stw	r5,-8(fp)
 c003b80:	e1bfff15 	stw	r6,-4(fp)
    int x0, x1, x2, x3, x4, x5, x6, x7, x8;
    if (!((x1 = blk[8*4] << 8)
 c003b84:	e0bffd17 	ldw	r2,-12(fp)
 c003b88:	10802004 	addi	r2,r2,128
 c003b8c:	10800017 	ldw	r2,0(r2)
 c003b90:	1004923a 	slli	r2,r2,8
 c003b94:	e0bff515 	stw	r2,-44(fp)
        | (x2 = blk[8*6])
 c003b98:	e0bffd17 	ldw	r2,-12(fp)
 c003b9c:	10803017 	ldw	r2,192(r2)
 c003ba0:	e0bff615 	stw	r2,-40(fp)
 c003ba4:	e0fff517 	ldw	r3,-44(fp)
 c003ba8:	e0bff617 	ldw	r2,-40(fp)
 c003bac:	1886b03a 	or	r3,r3,r2
        | (x3 = blk[8*2])
 c003bb0:	e0bffd17 	ldw	r2,-12(fp)
 c003bb4:	10801017 	ldw	r2,64(r2)
 c003bb8:	e0bff715 	stw	r2,-36(fp)
 c003bbc:	e0bff717 	ldw	r2,-36(fp)
 c003bc0:	1886b03a 	or	r3,r3,r2
        | (x4 = blk[8*1])
 c003bc4:	e0bffd17 	ldw	r2,-12(fp)
 c003bc8:	10800817 	ldw	r2,32(r2)
 c003bcc:	e0bff815 	stw	r2,-32(fp)
 c003bd0:	e0bff817 	ldw	r2,-32(fp)
 c003bd4:	1886b03a 	or	r3,r3,r2
        | (x5 = blk[8*7])
 c003bd8:	e0bffd17 	ldw	r2,-12(fp)
 c003bdc:	10803817 	ldw	r2,224(r2)
 c003be0:	e0bff915 	stw	r2,-28(fp)
 c003be4:	e0bff917 	ldw	r2,-28(fp)
 c003be8:	1886b03a 	or	r3,r3,r2
        | (x6 = blk[8*5])
 c003bec:	e0bffd17 	ldw	r2,-12(fp)
 c003bf0:	10802817 	ldw	r2,160(r2)
 c003bf4:	e0bffa15 	stw	r2,-24(fp)
 c003bf8:	e0bffa17 	ldw	r2,-24(fp)
 c003bfc:	1886b03a 	or	r3,r3,r2
        | (x7 = blk[8*3])))
 c003c00:	e0bffd17 	ldw	r2,-12(fp)
 c003c04:	10801817 	ldw	r2,96(r2)
 c003c08:	e0bffb15 	stw	r2,-20(fp)
 c003c0c:	e0bffb17 	ldw	r2,-20(fp)
 c003c10:	1884b03a 	or	r2,r3,r2
    blk[7] = (x7 - x1) >> 8;
}

NJ_INLINE void njColIDCT(const int* blk, unsigned char *out, int stride) {
    int x0, x1, x2, x3, x4, x5, x6, x7, x8;
    if (!((x1 = blk[8*4] << 8)
 c003c14:	10001a1e 	bne	r2,zero,c003c80 <njColIDCT+0x118>
        | (x4 = blk[8*1])
        | (x5 = blk[8*7])
        | (x6 = blk[8*5])
        | (x7 = blk[8*3])))
    {
        x1 = njClip(((blk[0] + 32) >> 6) + 128);
 c003c18:	e0bffd17 	ldw	r2,-12(fp)
 c003c1c:	10800017 	ldw	r2,0(r2)
 c003c20:	10800804 	addi	r2,r2,32
 c003c24:	1005d1ba 	srai	r2,r2,6
 c003c28:	10802004 	addi	r2,r2,128
 c003c2c:	1009883a 	mov	r4,r2
 c003c30:	c0037680 	call	c003768 <njClip>
 c003c34:	10803fcc 	andi	r2,r2,255
 c003c38:	e0bff515 	stw	r2,-44(fp)
        for (x0 = 8;  x0;  --x0) {
 c003c3c:	00800204 	movi	r2,8
 c003c40:	e0bff415 	stw	r2,-48(fp)
 c003c44:	00000b06 	br	c003c74 <njColIDCT+0x10c>
            *out = (unsigned char) x1;
 c003c48:	e0bff517 	ldw	r2,-44(fp)
 c003c4c:	1007883a 	mov	r3,r2
 c003c50:	e0bffe17 	ldw	r2,-8(fp)
 c003c54:	10c00005 	stb	r3,0(r2)
            out += stride;
 c003c58:	e0bfff17 	ldw	r2,-4(fp)
 c003c5c:	e0fffe17 	ldw	r3,-8(fp)
 c003c60:	1885883a 	add	r2,r3,r2
 c003c64:	e0bffe15 	stw	r2,-8(fp)
        | (x5 = blk[8*7])
        | (x6 = blk[8*5])
        | (x7 = blk[8*3])))
    {
        x1 = njClip(((blk[0] + 32) >> 6) + 128);
        for (x0 = 8;  x0;  --x0) {
 c003c68:	e0bff417 	ldw	r2,-48(fp)
 c003c6c:	10bfffc4 	addi	r2,r2,-1
 c003c70:	e0bff415 	stw	r2,-48(fp)
 c003c74:	e0bff417 	ldw	r2,-48(fp)
 c003c78:	103ff31e 	bne	r2,zero,c003c48 <__alt_data_end+0xfc003c48>
            *out = (unsigned char) x1;
            out += stride;
        }
        return;
 c003c7c:	0000dd06 	br	c003ff4 <njColIDCT+0x48c>
    }
    x0 = (blk[0] << 8) + 8192;
 c003c80:	e0bffd17 	ldw	r2,-12(fp)
 c003c84:	10800017 	ldw	r2,0(r2)
 c003c88:	1004923a 	slli	r2,r2,8
 c003c8c:	10880004 	addi	r2,r2,8192
 c003c90:	e0bff415 	stw	r2,-48(fp)
    x8 = W7 * (x4 + x5) + 4;
 c003c94:	e0fff817 	ldw	r3,-32(fp)
 c003c98:	e0bff917 	ldw	r2,-28(fp)
 c003c9c:	1885883a 	add	r2,r3,r2
 c003ca0:	10808d64 	muli	r2,r2,565
 c003ca4:	10800104 	addi	r2,r2,4
 c003ca8:	e0bffc15 	stw	r2,-16(fp)
    x4 = (x8 + (W1 - W7) * x4) >> 3;
 c003cac:	e0bff817 	ldw	r2,-32(fp)
 c003cb0:	10c23924 	muli	r3,r2,2276
 c003cb4:	e0bffc17 	ldw	r2,-16(fp)
 c003cb8:	1885883a 	add	r2,r3,r2
 c003cbc:	1005d0fa 	srai	r2,r2,3
 c003cc0:	e0bff815 	stw	r2,-32(fp)
    x5 = (x8 - (W1 + W7) * x5) >> 3;
 c003cc4:	e0bff917 	ldw	r2,-28(fp)
 c003cc8:	10fcaca4 	muli	r3,r2,-3406
 c003ccc:	e0bffc17 	ldw	r2,-16(fp)
 c003cd0:	1885883a 	add	r2,r3,r2
 c003cd4:	1005d0fa 	srai	r2,r2,3
 c003cd8:	e0bff915 	stw	r2,-28(fp)
    x8 = W3 * (x6 + x7) + 4;
 c003cdc:	e0fffa17 	ldw	r3,-24(fp)
 c003ce0:	e0bffb17 	ldw	r2,-20(fp)
 c003ce4:	1885883a 	add	r2,r3,r2
 c003ce8:	10825a24 	muli	r2,r2,2408
 c003cec:	10800104 	addi	r2,r2,4
 c003cf0:	e0bffc15 	stw	r2,-16(fp)
    x6 = (x8 - (W3 - W5) * x6) >> 3;
 c003cf4:	e0bffa17 	ldw	r2,-24(fp)
 c003cf8:	10ff3864 	muli	r3,r2,-799
 c003cfc:	e0bffc17 	ldw	r2,-16(fp)
 c003d00:	1885883a 	add	r2,r3,r2
 c003d04:	1005d0fa 	srai	r2,r2,3
 c003d08:	e0bffa15 	stw	r2,-24(fp)
    x7 = (x8 - (W3 + W5) * x7) >> 3;
 c003d0c:	e0bffb17 	ldw	r2,-20(fp)
 c003d10:	10fc13e4 	muli	r3,r2,-4017
 c003d14:	e0bffc17 	ldw	r2,-16(fp)
 c003d18:	1885883a 	add	r2,r3,r2
 c003d1c:	1005d0fa 	srai	r2,r2,3
 c003d20:	e0bffb15 	stw	r2,-20(fp)
    x8 = x0 + x1;
 c003d24:	e0fff417 	ldw	r3,-48(fp)
 c003d28:	e0bff517 	ldw	r2,-44(fp)
 c003d2c:	1885883a 	add	r2,r3,r2
 c003d30:	e0bffc15 	stw	r2,-16(fp)
    x0 -= x1;
 c003d34:	e0fff417 	ldw	r3,-48(fp)
 c003d38:	e0bff517 	ldw	r2,-44(fp)
 c003d3c:	1885c83a 	sub	r2,r3,r2
 c003d40:	e0bff415 	stw	r2,-48(fp)
    x1 = W6 * (x3 + x2) + 4;
 c003d44:	e0fff717 	ldw	r3,-36(fp)
 c003d48:	e0bff617 	ldw	r2,-40(fp)
 c003d4c:	1885883a 	add	r2,r3,r2
 c003d50:	10811524 	muli	r2,r2,1108
 c003d54:	10800104 	addi	r2,r2,4
 c003d58:	e0bff515 	stw	r2,-44(fp)
    x2 = (x1 - (W2 + W6) * x2) >> 3;
 c003d5c:	e0bff617 	ldw	r2,-40(fp)
 c003d60:	10fc4e24 	muli	r3,r2,-3784
 c003d64:	e0bff517 	ldw	r2,-44(fp)
 c003d68:	1885883a 	add	r2,r3,r2
 c003d6c:	1005d0fa 	srai	r2,r2,3
 c003d70:	e0bff615 	stw	r2,-40(fp)
    x3 = (x1 + (W2 - W6) * x3) >> 3;
 c003d74:	e0bff717 	ldw	r2,-36(fp)
 c003d78:	10c18824 	muli	r3,r2,1568
 c003d7c:	e0bff517 	ldw	r2,-44(fp)
 c003d80:	1885883a 	add	r2,r3,r2
 c003d84:	1005d0fa 	srai	r2,r2,3
 c003d88:	e0bff715 	stw	r2,-36(fp)
    x1 = x4 + x6;
 c003d8c:	e0fff817 	ldw	r3,-32(fp)
 c003d90:	e0bffa17 	ldw	r2,-24(fp)
 c003d94:	1885883a 	add	r2,r3,r2
 c003d98:	e0bff515 	stw	r2,-44(fp)
    x4 -= x6;
 c003d9c:	e0fff817 	ldw	r3,-32(fp)
 c003da0:	e0bffa17 	ldw	r2,-24(fp)
 c003da4:	1885c83a 	sub	r2,r3,r2
 c003da8:	e0bff815 	stw	r2,-32(fp)
    x6 = x5 + x7;
 c003dac:	e0fff917 	ldw	r3,-28(fp)
 c003db0:	e0bffb17 	ldw	r2,-20(fp)
 c003db4:	1885883a 	add	r2,r3,r2
 c003db8:	e0bffa15 	stw	r2,-24(fp)
    x5 -= x7;
 c003dbc:	e0fff917 	ldw	r3,-28(fp)
 c003dc0:	e0bffb17 	ldw	r2,-20(fp)
 c003dc4:	1885c83a 	sub	r2,r3,r2
 c003dc8:	e0bff915 	stw	r2,-28(fp)
    x7 = x8 + x3;
 c003dcc:	e0fffc17 	ldw	r3,-16(fp)
 c003dd0:	e0bff717 	ldw	r2,-36(fp)
 c003dd4:	1885883a 	add	r2,r3,r2
 c003dd8:	e0bffb15 	stw	r2,-20(fp)
    x8 -= x3;
 c003ddc:	e0fffc17 	ldw	r3,-16(fp)
 c003de0:	e0bff717 	ldw	r2,-36(fp)
 c003de4:	1885c83a 	sub	r2,r3,r2
 c003de8:	e0bffc15 	stw	r2,-16(fp)
    x3 = x0 + x2;
 c003dec:	e0fff417 	ldw	r3,-48(fp)
 c003df0:	e0bff617 	ldw	r2,-40(fp)
 c003df4:	1885883a 	add	r2,r3,r2
 c003df8:	e0bff715 	stw	r2,-36(fp)
    x0 -= x2;
 c003dfc:	e0fff417 	ldw	r3,-48(fp)
 c003e00:	e0bff617 	ldw	r2,-40(fp)
 c003e04:	1885c83a 	sub	r2,r3,r2
 c003e08:	e0bff415 	stw	r2,-48(fp)
    x2 = (181 * (x4 + x5) + 128) >> 8;
 c003e0c:	e0fff817 	ldw	r3,-32(fp)
 c003e10:	e0bff917 	ldw	r2,-28(fp)
 c003e14:	1885883a 	add	r2,r3,r2
 c003e18:	10802d64 	muli	r2,r2,181
 c003e1c:	10802004 	addi	r2,r2,128
 c003e20:	1005d23a 	srai	r2,r2,8
 c003e24:	e0bff615 	stw	r2,-40(fp)
    x4 = (181 * (x4 - x5) + 128) >> 8;
 c003e28:	e0fff817 	ldw	r3,-32(fp)
 c003e2c:	e0bff917 	ldw	r2,-28(fp)
 c003e30:	1885c83a 	sub	r2,r3,r2
 c003e34:	10802d64 	muli	r2,r2,181
 c003e38:	10802004 	addi	r2,r2,128
 c003e3c:	1005d23a 	srai	r2,r2,8
 c003e40:	e0bff815 	stw	r2,-32(fp)
    *out = njClip(((x7 + x1) >> 14) + 128);  out += stride;
 c003e44:	e0fffb17 	ldw	r3,-20(fp)
 c003e48:	e0bff517 	ldw	r2,-44(fp)
 c003e4c:	1885883a 	add	r2,r3,r2
 c003e50:	1005d3ba 	srai	r2,r2,14
 c003e54:	10802004 	addi	r2,r2,128
 c003e58:	1009883a 	mov	r4,r2
 c003e5c:	c0037680 	call	c003768 <njClip>
 c003e60:	1007883a 	mov	r3,r2
 c003e64:	e0bffe17 	ldw	r2,-8(fp)
 c003e68:	10c00005 	stb	r3,0(r2)
 c003e6c:	e0bfff17 	ldw	r2,-4(fp)
 c003e70:	e0fffe17 	ldw	r3,-8(fp)
 c003e74:	1885883a 	add	r2,r3,r2
 c003e78:	e0bffe15 	stw	r2,-8(fp)
    *out = njClip(((x3 + x2) >> 14) + 128);  out += stride;
 c003e7c:	e0fff717 	ldw	r3,-36(fp)
 c003e80:	e0bff617 	ldw	r2,-40(fp)
 c003e84:	1885883a 	add	r2,r3,r2
 c003e88:	1005d3ba 	srai	r2,r2,14
 c003e8c:	10802004 	addi	r2,r2,128
 c003e90:	1009883a 	mov	r4,r2
 c003e94:	c0037680 	call	c003768 <njClip>
 c003e98:	1007883a 	mov	r3,r2
 c003e9c:	e0bffe17 	ldw	r2,-8(fp)
 c003ea0:	10c00005 	stb	r3,0(r2)
 c003ea4:	e0bfff17 	ldw	r2,-4(fp)
 c003ea8:	e0fffe17 	ldw	r3,-8(fp)
 c003eac:	1885883a 	add	r2,r3,r2
 c003eb0:	e0bffe15 	stw	r2,-8(fp)
    *out = njClip(((x0 + x4) >> 14) + 128);  out += stride;
 c003eb4:	e0fff417 	ldw	r3,-48(fp)
 c003eb8:	e0bff817 	ldw	r2,-32(fp)
 c003ebc:	1885883a 	add	r2,r3,r2
 c003ec0:	1005d3ba 	srai	r2,r2,14
 c003ec4:	10802004 	addi	r2,r2,128
 c003ec8:	1009883a 	mov	r4,r2
 c003ecc:	c0037680 	call	c003768 <njClip>
 c003ed0:	1007883a 	mov	r3,r2
 c003ed4:	e0bffe17 	ldw	r2,-8(fp)
 c003ed8:	10c00005 	stb	r3,0(r2)
 c003edc:	e0bfff17 	ldw	r2,-4(fp)
 c003ee0:	e0fffe17 	ldw	r3,-8(fp)
 c003ee4:	1885883a 	add	r2,r3,r2
 c003ee8:	e0bffe15 	stw	r2,-8(fp)
    *out = njClip(((x8 + x6) >> 14) + 128);  out += stride;
 c003eec:	e0fffc17 	ldw	r3,-16(fp)
 c003ef0:	e0bffa17 	ldw	r2,-24(fp)
 c003ef4:	1885883a 	add	r2,r3,r2
 c003ef8:	1005d3ba 	srai	r2,r2,14
 c003efc:	10802004 	addi	r2,r2,128
 c003f00:	1009883a 	mov	r4,r2
 c003f04:	c0037680 	call	c003768 <njClip>
 c003f08:	1007883a 	mov	r3,r2
 c003f0c:	e0bffe17 	ldw	r2,-8(fp)
 c003f10:	10c00005 	stb	r3,0(r2)
 c003f14:	e0bfff17 	ldw	r2,-4(fp)
 c003f18:	e0fffe17 	ldw	r3,-8(fp)
 c003f1c:	1885883a 	add	r2,r3,r2
 c003f20:	e0bffe15 	stw	r2,-8(fp)
    *out = njClip(((x8 - x6) >> 14) + 128);  out += stride;
 c003f24:	e0fffc17 	ldw	r3,-16(fp)
 c003f28:	e0bffa17 	ldw	r2,-24(fp)
 c003f2c:	1885c83a 	sub	r2,r3,r2
 c003f30:	1005d3ba 	srai	r2,r2,14
 c003f34:	10802004 	addi	r2,r2,128
 c003f38:	1009883a 	mov	r4,r2
 c003f3c:	c0037680 	call	c003768 <njClip>
 c003f40:	1007883a 	mov	r3,r2
 c003f44:	e0bffe17 	ldw	r2,-8(fp)
 c003f48:	10c00005 	stb	r3,0(r2)
 c003f4c:	e0bfff17 	ldw	r2,-4(fp)
 c003f50:	e0fffe17 	ldw	r3,-8(fp)
 c003f54:	1885883a 	add	r2,r3,r2
 c003f58:	e0bffe15 	stw	r2,-8(fp)
    *out = njClip(((x0 - x4) >> 14) + 128);  out += stride;
 c003f5c:	e0fff417 	ldw	r3,-48(fp)
 c003f60:	e0bff817 	ldw	r2,-32(fp)
 c003f64:	1885c83a 	sub	r2,r3,r2
 c003f68:	1005d3ba 	srai	r2,r2,14
 c003f6c:	10802004 	addi	r2,r2,128
 c003f70:	1009883a 	mov	r4,r2
 c003f74:	c0037680 	call	c003768 <njClip>
 c003f78:	1007883a 	mov	r3,r2
 c003f7c:	e0bffe17 	ldw	r2,-8(fp)
 c003f80:	10c00005 	stb	r3,0(r2)
 c003f84:	e0bfff17 	ldw	r2,-4(fp)
 c003f88:	e0fffe17 	ldw	r3,-8(fp)
 c003f8c:	1885883a 	add	r2,r3,r2
 c003f90:	e0bffe15 	stw	r2,-8(fp)
    *out = njClip(((x3 - x2) >> 14) + 128);  out += stride;
 c003f94:	e0fff717 	ldw	r3,-36(fp)
 c003f98:	e0bff617 	ldw	r2,-40(fp)
 c003f9c:	1885c83a 	sub	r2,r3,r2
 c003fa0:	1005d3ba 	srai	r2,r2,14
 c003fa4:	10802004 	addi	r2,r2,128
 c003fa8:	1009883a 	mov	r4,r2
 c003fac:	c0037680 	call	c003768 <njClip>
 c003fb0:	1007883a 	mov	r3,r2
 c003fb4:	e0bffe17 	ldw	r2,-8(fp)
 c003fb8:	10c00005 	stb	r3,0(r2)
 c003fbc:	e0bfff17 	ldw	r2,-4(fp)
 c003fc0:	e0fffe17 	ldw	r3,-8(fp)
 c003fc4:	1885883a 	add	r2,r3,r2
 c003fc8:	e0bffe15 	stw	r2,-8(fp)
    *out = njClip(((x7 - x1) >> 14) + 128);
 c003fcc:	e0fffb17 	ldw	r3,-20(fp)
 c003fd0:	e0bff517 	ldw	r2,-44(fp)
 c003fd4:	1885c83a 	sub	r2,r3,r2
 c003fd8:	1005d3ba 	srai	r2,r2,14
 c003fdc:	10802004 	addi	r2,r2,128
 c003fe0:	1009883a 	mov	r4,r2
 c003fe4:	c0037680 	call	c003768 <njClip>
 c003fe8:	1007883a 	mov	r3,r2
 c003fec:	e0bffe17 	ldw	r2,-8(fp)
 c003ff0:	10c00005 	stb	r3,0(r2)
}
 c003ff4:	e037883a 	mov	sp,fp
 c003ff8:	dfc00117 	ldw	ra,4(sp)
 c003ffc:	df000017 	ldw	fp,0(sp)
 c004000:	dec00204 	addi	sp,sp,8
 c004004:	f800283a 	ret

0c004008 <njShowBits>:

#define njThrow(e) do { nj.error = e; return; } while (0)
#define njCheckError() do { if (nj.error) return; } while (0)

static int njShowBits(int bits) {
 c004008:	defffd04 	addi	sp,sp,-12
 c00400c:	df000215 	stw	fp,8(sp)
 c004010:	df000204 	addi	fp,sp,8
 c004014:	e13fff15 	stw	r4,-4(fp)
    unsigned char newbyte;
    if (!bits) return 0;
 c004018:	e0bfff17 	ldw	r2,-4(fp)
 c00401c:	1000021e 	bne	r2,zero,c004028 <njShowBits+0x20>
 c004020:	0005883a 	mov	r2,zero
 c004024:	0000b706 	br	c004304 <njShowBits+0x2fc>
    while (nj.bufbits < bits) {
 c004028:	00009a06 	br	c004294 <njShowBits+0x28c>
        if (nj.size <= 0) {
 c00402c:	008300b4 	movhi	r2,3074
 c004030:	10976004 	addi	r2,r2,23936
 c004034:	10800217 	ldw	r2,8(r2)
 c004038:	00801c16 	blt	zero,r2,c0040ac <njShowBits+0xa4>
            nj.buf = (nj.buf << 8) | 0xFF;
 c00403c:	00c300b4 	movhi	r3,3074
 c004040:	18d76004 	addi	r3,r3,23936
 c004044:	00800234 	movhi	r2,8
 c004048:	10806e04 	addi	r2,r2,440
 c00404c:	1885883a 	add	r2,r3,r2
 c004050:	10800017 	ldw	r2,0(r2)
 c004054:	1004923a 	slli	r2,r2,8
 c004058:	11003fd4 	ori	r4,r2,255
 c00405c:	00c300b4 	movhi	r3,3074
 c004060:	18d76004 	addi	r3,r3,23936
 c004064:	00800234 	movhi	r2,8
 c004068:	10806e04 	addi	r2,r2,440
 c00406c:	1885883a 	add	r2,r3,r2
 c004070:	11000015 	stw	r4,0(r2)
            nj.bufbits += 8;
 c004074:	00c300b4 	movhi	r3,3074
 c004078:	18d76004 	addi	r3,r3,23936
 c00407c:	00800234 	movhi	r2,8
 c004080:	10806f04 	addi	r2,r2,444
 c004084:	1885883a 	add	r2,r3,r2
 c004088:	10800017 	ldw	r2,0(r2)
 c00408c:	11000204 	addi	r4,r2,8
 c004090:	00c300b4 	movhi	r3,3074
 c004094:	18d76004 	addi	r3,r3,23936
 c004098:	00800234 	movhi	r2,8
 c00409c:	10806f04 	addi	r2,r2,444
 c0040a0:	1885883a 	add	r2,r3,r2
 c0040a4:	11000015 	stw	r4,0(r2)
            continue;
 c0040a8:	00007a06 	br	c004294 <njShowBits+0x28c>
        }
        newbyte = *nj.pos++;
 c0040ac:	008300b4 	movhi	r2,3074
 c0040b0:	10976004 	addi	r2,r2,23936
 c0040b4:	10c00117 	ldw	r3,4(r2)
 c0040b8:	19000044 	addi	r4,r3,1
 c0040bc:	008300b4 	movhi	r2,3074
 c0040c0:	10976004 	addi	r2,r2,23936
 c0040c4:	11000115 	stw	r4,4(r2)
 c0040c8:	18800003 	ldbu	r2,0(r3)
 c0040cc:	e0bffe05 	stb	r2,-8(fp)
        nj.size--;
 c0040d0:	008300b4 	movhi	r2,3074
 c0040d4:	10976004 	addi	r2,r2,23936
 c0040d8:	10800217 	ldw	r2,8(r2)
 c0040dc:	10ffffc4 	addi	r3,r2,-1
 c0040e0:	008300b4 	movhi	r2,3074
 c0040e4:	10976004 	addi	r2,r2,23936
 c0040e8:	10c00215 	stw	r3,8(r2)
        nj.bufbits += 8;
 c0040ec:	00c300b4 	movhi	r3,3074
 c0040f0:	18d76004 	addi	r3,r3,23936
 c0040f4:	00800234 	movhi	r2,8
 c0040f8:	10806f04 	addi	r2,r2,444
 c0040fc:	1885883a 	add	r2,r3,r2
 c004100:	10800017 	ldw	r2,0(r2)
 c004104:	11000204 	addi	r4,r2,8
 c004108:	00c300b4 	movhi	r3,3074
 c00410c:	18d76004 	addi	r3,r3,23936
 c004110:	00800234 	movhi	r2,8
 c004114:	10806f04 	addi	r2,r2,444
 c004118:	1885883a 	add	r2,r3,r2
 c00411c:	11000015 	stw	r4,0(r2)
        nj.buf = (nj.buf << 8) | newbyte;
 c004120:	00c300b4 	movhi	r3,3074
 c004124:	18d76004 	addi	r3,r3,23936
 c004128:	00800234 	movhi	r2,8
 c00412c:	10806e04 	addi	r2,r2,440
 c004130:	1885883a 	add	r2,r3,r2
 c004134:	10800017 	ldw	r2,0(r2)
 c004138:	1006923a 	slli	r3,r2,8
 c00413c:	e0bffe03 	ldbu	r2,-8(fp)
 c004140:	1888b03a 	or	r4,r3,r2
 c004144:	00c300b4 	movhi	r3,3074
 c004148:	18d76004 	addi	r3,r3,23936
 c00414c:	00800234 	movhi	r2,8
 c004150:	10806e04 	addi	r2,r2,440
 c004154:	1885883a 	add	r2,r3,r2
 c004158:	11000015 	stw	r4,0(r2)
        if (newbyte == 0xFF) {
 c00415c:	e0bffe03 	ldbu	r2,-8(fp)
 c004160:	10803fd8 	cmpnei	r2,r2,255
 c004164:	10004b1e 	bne	r2,zero,c004294 <njShowBits+0x28c>
            if (nj.size) {
 c004168:	008300b4 	movhi	r2,3074
 c00416c:	10976004 	addi	r2,r2,23936
 c004170:	10800217 	ldw	r2,8(r2)
 c004174:	10004326 	beq	r2,zero,c004284 <njShowBits+0x27c>
                unsigned char marker = *nj.pos++;
 c004178:	008300b4 	movhi	r2,3074
 c00417c:	10976004 	addi	r2,r2,23936
 c004180:	10c00117 	ldw	r3,4(r2)
 c004184:	19000044 	addi	r4,r3,1
 c004188:	008300b4 	movhi	r2,3074
 c00418c:	10976004 	addi	r2,r2,23936
 c004190:	11000115 	stw	r4,4(r2)
 c004194:	18800003 	ldbu	r2,0(r3)
 c004198:	e0bffe45 	stb	r2,-7(fp)
                nj.size--;
 c00419c:	008300b4 	movhi	r2,3074
 c0041a0:	10976004 	addi	r2,r2,23936
 c0041a4:	10800217 	ldw	r2,8(r2)
 c0041a8:	10ffffc4 	addi	r3,r2,-1
 c0041ac:	008300b4 	movhi	r2,3074
 c0041b0:	10976004 	addi	r2,r2,23936
 c0041b4:	10c00215 	stw	r3,8(r2)
                switch (marker) {
 c0041b8:	e0bffe43 	ldbu	r2,-7(fp)
 c0041bc:	10c03660 	cmpeqi	r3,r2,217
 c0041c0:	1800041e 	bne	r3,zero,c0041d4 <njShowBits+0x1cc>
 c0041c4:	10c03fe0 	cmpeqi	r3,r2,255
 c0041c8:	18002c1e 	bne	r3,zero,c00427c <njShowBits+0x274>
 c0041cc:	10002b26 	beq	r2,zero,c00427c <njShowBits+0x274>
 c0041d0:	00000406 	br	c0041e4 <njShowBits+0x1dc>
                    case 0x00:
                    case 0xFF:
                        break;
                    case 0xD9: nj.size = 0; break;
 c0041d4:	008300b4 	movhi	r2,3074
 c0041d8:	10976004 	addi	r2,r2,23936
 c0041dc:	10000215 	stw	zero,8(r2)
 c0041e0:	00002706 	br	c004280 <njShowBits+0x278>
                    default:
                        if ((marker & 0xF8) != 0xD0)
 c0041e4:	e0bffe43 	ldbu	r2,-7(fp)
 c0041e8:	10803e0c 	andi	r2,r2,248
 c0041ec:	10803420 	cmpeqi	r2,r2,208
 c0041f0:	1000051e 	bne	r2,zero,c004208 <njShowBits+0x200>
                            nj.error = NJ_SYNTAX_ERROR;
 c0041f4:	008300b4 	movhi	r2,3074
 c0041f8:	10976004 	addi	r2,r2,23936
 c0041fc:	00c00144 	movi	r3,5
 c004200:	10c00015 	stw	r3,0(r2)
 c004204:	00001e06 	br	c004280 <njShowBits+0x278>
                        else {
                            nj.buf = (nj.buf << 8) | marker;
 c004208:	00c300b4 	movhi	r3,3074
 c00420c:	18d76004 	addi	r3,r3,23936
 c004210:	00800234 	movhi	r2,8
 c004214:	10806e04 	addi	r2,r2,440
 c004218:	1885883a 	add	r2,r3,r2
 c00421c:	10800017 	ldw	r2,0(r2)
 c004220:	1006923a 	slli	r3,r2,8
 c004224:	e0bffe43 	ldbu	r2,-7(fp)
 c004228:	1888b03a 	or	r4,r3,r2
 c00422c:	00c300b4 	movhi	r3,3074
 c004230:	18d76004 	addi	r3,r3,23936
 c004234:	00800234 	movhi	r2,8
 c004238:	10806e04 	addi	r2,r2,440
 c00423c:	1885883a 	add	r2,r3,r2
 c004240:	11000015 	stw	r4,0(r2)
                            nj.bufbits += 8;
 c004244:	00c300b4 	movhi	r3,3074
 c004248:	18d76004 	addi	r3,r3,23936
 c00424c:	00800234 	movhi	r2,8
 c004250:	10806f04 	addi	r2,r2,444
 c004254:	1885883a 	add	r2,r3,r2
 c004258:	10800017 	ldw	r2,0(r2)
 c00425c:	11000204 	addi	r4,r2,8
 c004260:	00c300b4 	movhi	r3,3074
 c004264:	18d76004 	addi	r3,r3,23936
 c004268:	00800234 	movhi	r2,8
 c00426c:	10806f04 	addi	r2,r2,444
 c004270:	1885883a 	add	r2,r3,r2
 c004274:	11000015 	stw	r4,0(r2)
 c004278:	00000606 	br	c004294 <njShowBits+0x28c>
                unsigned char marker = *nj.pos++;
                nj.size--;
                switch (marker) {
                    case 0x00:
                    case 0xFF:
                        break;
 c00427c:	0001883a 	nop
 c004280:	00000406 	br	c004294 <njShowBits+0x28c>
                            nj.buf = (nj.buf << 8) | marker;
                            nj.bufbits += 8;
                        }
                }
            } else
                nj.error = NJ_SYNTAX_ERROR;
 c004284:	008300b4 	movhi	r2,3074
 c004288:	10976004 	addi	r2,r2,23936
 c00428c:	00c00144 	movi	r3,5
 c004290:	10c00015 	stw	r3,0(r2)
#define njCheckError() do { if (nj.error) return; } while (0)

static int njShowBits(int bits) {
    unsigned char newbyte;
    if (!bits) return 0;
    while (nj.bufbits < bits) {
 c004294:	00c300b4 	movhi	r3,3074
 c004298:	18d76004 	addi	r3,r3,23936
 c00429c:	00800234 	movhi	r2,8
 c0042a0:	10806f04 	addi	r2,r2,444
 c0042a4:	1885883a 	add	r2,r3,r2
 c0042a8:	10c00017 	ldw	r3,0(r2)
 c0042ac:	e0bfff17 	ldw	r2,-4(fp)
 c0042b0:	18bf5e16 	blt	r3,r2,c00402c <__alt_data_end+0xfc00402c>
                }
            } else
                nj.error = NJ_SYNTAX_ERROR;
        }
    }
    return (nj.buf >> (nj.bufbits - bits)) & ((1 << bits) - 1);
 c0042b4:	00c300b4 	movhi	r3,3074
 c0042b8:	18d76004 	addi	r3,r3,23936
 c0042bc:	00800234 	movhi	r2,8
 c0042c0:	10806e04 	addi	r2,r2,440
 c0042c4:	1885883a 	add	r2,r3,r2
 c0042c8:	11000017 	ldw	r4,0(r2)
 c0042cc:	00c300b4 	movhi	r3,3074
 c0042d0:	18d76004 	addi	r3,r3,23936
 c0042d4:	00800234 	movhi	r2,8
 c0042d8:	10806f04 	addi	r2,r2,444
 c0042dc:	1885883a 	add	r2,r3,r2
 c0042e0:	10c00017 	ldw	r3,0(r2)
 c0042e4:	e0bfff17 	ldw	r2,-4(fp)
 c0042e8:	1885c83a 	sub	r2,r3,r2
 c0042ec:	2087d83a 	sra	r3,r4,r2
 c0042f0:	01000044 	movi	r4,1
 c0042f4:	e0bfff17 	ldw	r2,-4(fp)
 c0042f8:	2084983a 	sll	r2,r4,r2
 c0042fc:	10bfffc4 	addi	r2,r2,-1
 c004300:	1884703a 	and	r2,r3,r2
}
 c004304:	e037883a 	mov	sp,fp
 c004308:	df000017 	ldw	fp,0(sp)
 c00430c:	dec00104 	addi	sp,sp,4
 c004310:	f800283a 	ret

0c004314 <njSkipBits>:

NJ_INLINE void njSkipBits(int bits) {
 c004314:	defffd04 	addi	sp,sp,-12
 c004318:	dfc00215 	stw	ra,8(sp)
 c00431c:	df000115 	stw	fp,4(sp)
 c004320:	df000104 	addi	fp,sp,4
 c004324:	e13fff15 	stw	r4,-4(fp)
    if (nj.bufbits < bits)
 c004328:	00c300b4 	movhi	r3,3074
 c00432c:	18d76004 	addi	r3,r3,23936
 c004330:	00800234 	movhi	r2,8
 c004334:	10806f04 	addi	r2,r2,444
 c004338:	1885883a 	add	r2,r3,r2
 c00433c:	10c00017 	ldw	r3,0(r2)
 c004340:	e0bfff17 	ldw	r2,-4(fp)
 c004344:	1880020e 	bge	r3,r2,c004350 <njSkipBits+0x3c>
        (void) njShowBits(bits);
 c004348:	e13fff17 	ldw	r4,-4(fp)
 c00434c:	c0040080 	call	c004008 <njShowBits>
    nj.bufbits -= bits;
 c004350:	00c300b4 	movhi	r3,3074
 c004354:	18d76004 	addi	r3,r3,23936
 c004358:	00800234 	movhi	r2,8
 c00435c:	10806f04 	addi	r2,r2,444
 c004360:	1885883a 	add	r2,r3,r2
 c004364:	10c00017 	ldw	r3,0(r2)
 c004368:	e0bfff17 	ldw	r2,-4(fp)
 c00436c:	1889c83a 	sub	r4,r3,r2
 c004370:	00c300b4 	movhi	r3,3074
 c004374:	18d76004 	addi	r3,r3,23936
 c004378:	00800234 	movhi	r2,8
 c00437c:	10806f04 	addi	r2,r2,444
 c004380:	1885883a 	add	r2,r3,r2
 c004384:	11000015 	stw	r4,0(r2)
}
 c004388:	e037883a 	mov	sp,fp
 c00438c:	dfc00117 	ldw	ra,4(sp)
 c004390:	df000017 	ldw	fp,0(sp)
 c004394:	dec00204 	addi	sp,sp,8
 c004398:	f800283a 	ret

0c00439c <njGetBits>:

NJ_INLINE int njGetBits(int bits) {
 c00439c:	defffc04 	addi	sp,sp,-16
 c0043a0:	dfc00315 	stw	ra,12(sp)
 c0043a4:	df000215 	stw	fp,8(sp)
 c0043a8:	df000204 	addi	fp,sp,8
 c0043ac:	e13fff15 	stw	r4,-4(fp)
    int res = njShowBits(bits);
 c0043b0:	e13fff17 	ldw	r4,-4(fp)
 c0043b4:	c0040080 	call	c004008 <njShowBits>
 c0043b8:	e0bffe15 	stw	r2,-8(fp)
    njSkipBits(bits);
 c0043bc:	e13fff17 	ldw	r4,-4(fp)
 c0043c0:	c0043140 	call	c004314 <njSkipBits>
    return res;
 c0043c4:	e0bffe17 	ldw	r2,-8(fp)
}
 c0043c8:	e037883a 	mov	sp,fp
 c0043cc:	dfc00117 	ldw	ra,4(sp)
 c0043d0:	df000017 	ldw	fp,0(sp)
 c0043d4:	dec00204 	addi	sp,sp,8
 c0043d8:	f800283a 	ret

0c0043dc <njByteAlign>:

NJ_INLINE void njByteAlign(void) {
 c0043dc:	deffff04 	addi	sp,sp,-4
 c0043e0:	df000015 	stw	fp,0(sp)
 c0043e4:	d839883a 	mov	fp,sp
    nj.bufbits &= 0xF8;
 c0043e8:	00c300b4 	movhi	r3,3074
 c0043ec:	18d76004 	addi	r3,r3,23936
 c0043f0:	00800234 	movhi	r2,8
 c0043f4:	10806f04 	addi	r2,r2,444
 c0043f8:	1885883a 	add	r2,r3,r2
 c0043fc:	10800017 	ldw	r2,0(r2)
 c004400:	11003e0c 	andi	r4,r2,248
 c004404:	00c300b4 	movhi	r3,3074
 c004408:	18d76004 	addi	r3,r3,23936
 c00440c:	00800234 	movhi	r2,8
 c004410:	10806f04 	addi	r2,r2,444
 c004414:	1885883a 	add	r2,r3,r2
 c004418:	11000015 	stw	r4,0(r2)
}
 c00441c:	e037883a 	mov	sp,fp
 c004420:	df000017 	ldw	fp,0(sp)
 c004424:	dec00104 	addi	sp,sp,4
 c004428:	f800283a 	ret

0c00442c <njSkip>:

static void njSkip(int count) {
 c00442c:	defffe04 	addi	sp,sp,-8
 c004430:	df000115 	stw	fp,4(sp)
 c004434:	df000104 	addi	fp,sp,4
 c004438:	e13fff15 	stw	r4,-4(fp)
    nj.pos += count;
 c00443c:	008300b4 	movhi	r2,3074
 c004440:	10976004 	addi	r2,r2,23936
 c004444:	10c00117 	ldw	r3,4(r2)
 c004448:	e0bfff17 	ldw	r2,-4(fp)
 c00444c:	1887883a 	add	r3,r3,r2
 c004450:	008300b4 	movhi	r2,3074
 c004454:	10976004 	addi	r2,r2,23936
 c004458:	10c00115 	stw	r3,4(r2)
    nj.size -= count;
 c00445c:	008300b4 	movhi	r2,3074
 c004460:	10976004 	addi	r2,r2,23936
 c004464:	10c00217 	ldw	r3,8(r2)
 c004468:	e0bfff17 	ldw	r2,-4(fp)
 c00446c:	1887c83a 	sub	r3,r3,r2
 c004470:	008300b4 	movhi	r2,3074
 c004474:	10976004 	addi	r2,r2,23936
 c004478:	10c00215 	stw	r3,8(r2)
    nj.length -= count;
 c00447c:	008300b4 	movhi	r2,3074
 c004480:	10976004 	addi	r2,r2,23936
 c004484:	10c00317 	ldw	r3,12(r2)
 c004488:	e0bfff17 	ldw	r2,-4(fp)
 c00448c:	1887c83a 	sub	r3,r3,r2
 c004490:	008300b4 	movhi	r2,3074
 c004494:	10976004 	addi	r2,r2,23936
 c004498:	10c00315 	stw	r3,12(r2)
    if (nj.size < 0) nj.error = NJ_SYNTAX_ERROR;
 c00449c:	008300b4 	movhi	r2,3074
 c0044a0:	10976004 	addi	r2,r2,23936
 c0044a4:	10800217 	ldw	r2,8(r2)
 c0044a8:	1000040e 	bge	r2,zero,c0044bc <njSkip+0x90>
 c0044ac:	008300b4 	movhi	r2,3074
 c0044b0:	10976004 	addi	r2,r2,23936
 c0044b4:	00c00144 	movi	r3,5
 c0044b8:	10c00015 	stw	r3,0(r2)
}
 c0044bc:	e037883a 	mov	sp,fp
 c0044c0:	df000017 	ldw	fp,0(sp)
 c0044c4:	dec00104 	addi	sp,sp,4
 c0044c8:	f800283a 	ret

0c0044cc <njDecode16>:

NJ_INLINE unsigned short njDecode16(const unsigned char *pos) {
 c0044cc:	defffe04 	addi	sp,sp,-8
 c0044d0:	df000115 	stw	fp,4(sp)
 c0044d4:	df000104 	addi	fp,sp,4
 c0044d8:	e13fff15 	stw	r4,-4(fp)
    return (pos[0] << 8) | pos[1];
 c0044dc:	e0bfff17 	ldw	r2,-4(fp)
 c0044e0:	10800003 	ldbu	r2,0(r2)
 c0044e4:	10803fcc 	andi	r2,r2,255
 c0044e8:	1004923a 	slli	r2,r2,8
 c0044ec:	1007883a 	mov	r3,r2
 c0044f0:	e0bfff17 	ldw	r2,-4(fp)
 c0044f4:	10800044 	addi	r2,r2,1
 c0044f8:	10800003 	ldbu	r2,0(r2)
 c0044fc:	10803fcc 	andi	r2,r2,255
 c004500:	1884b03a 	or	r2,r3,r2
}
 c004504:	e037883a 	mov	sp,fp
 c004508:	df000017 	ldw	fp,0(sp)
 c00450c:	dec00104 	addi	sp,sp,4
 c004510:	f800283a 	ret

0c004514 <njDecodeLength>:

static void njDecodeLength(void) {
 c004514:	defffe04 	addi	sp,sp,-8
 c004518:	dfc00115 	stw	ra,4(sp)
 c00451c:	df000015 	stw	fp,0(sp)
 c004520:	d839883a 	mov	fp,sp
    if (nj.size < 2) njThrow(NJ_SYNTAX_ERROR);
 c004524:	008300b4 	movhi	r2,3074
 c004528:	10976004 	addi	r2,r2,23936
 c00452c:	10800217 	ldw	r2,8(r2)
 c004530:	10800088 	cmpgei	r2,r2,2
 c004534:	1000051e 	bne	r2,zero,c00454c <njDecodeLength+0x38>
 c004538:	008300b4 	movhi	r2,3074
 c00453c:	10976004 	addi	r2,r2,23936
 c004540:	00c00144 	movi	r3,5
 c004544:	10c00015 	stw	r3,0(r2)
 c004548:	00001706 	br	c0045a8 <njDecodeLength+0x94>
    nj.length = njDecode16(nj.pos);
 c00454c:	008300b4 	movhi	r2,3074
 c004550:	10976004 	addi	r2,r2,23936
 c004554:	10800117 	ldw	r2,4(r2)
 c004558:	1009883a 	mov	r4,r2
 c00455c:	c0044cc0 	call	c0044cc <njDecode16>
 c004560:	10ffffcc 	andi	r3,r2,65535
 c004564:	008300b4 	movhi	r2,3074
 c004568:	10976004 	addi	r2,r2,23936
 c00456c:	10c00315 	stw	r3,12(r2)
    if (nj.length > nj.size) njThrow(NJ_SYNTAX_ERROR);
 c004570:	008300b4 	movhi	r2,3074
 c004574:	10976004 	addi	r2,r2,23936
 c004578:	10c00317 	ldw	r3,12(r2)
 c00457c:	008300b4 	movhi	r2,3074
 c004580:	10976004 	addi	r2,r2,23936
 c004584:	10800217 	ldw	r2,8(r2)
 c004588:	10c0050e 	bge	r2,r3,c0045a0 <njDecodeLength+0x8c>
 c00458c:	008300b4 	movhi	r2,3074
 c004590:	10976004 	addi	r2,r2,23936
 c004594:	00c00144 	movi	r3,5
 c004598:	10c00015 	stw	r3,0(r2)
 c00459c:	00000206 	br	c0045a8 <njDecodeLength+0x94>
    njSkip(2);
 c0045a0:	01000084 	movi	r4,2
 c0045a4:	c00442c0 	call	c00442c <njSkip>
}
 c0045a8:	e037883a 	mov	sp,fp
 c0045ac:	dfc00117 	ldw	ra,4(sp)
 c0045b0:	df000017 	ldw	fp,0(sp)
 c0045b4:	dec00204 	addi	sp,sp,8
 c0045b8:	f800283a 	ret

0c0045bc <njSkipMarker>:

NJ_INLINE void njSkipMarker(void) {
 c0045bc:	defffe04 	addi	sp,sp,-8
 c0045c0:	dfc00115 	stw	ra,4(sp)
 c0045c4:	df000015 	stw	fp,0(sp)
 c0045c8:	d839883a 	mov	fp,sp
    njDecodeLength();
 c0045cc:	c0045140 	call	c004514 <njDecodeLength>
    njSkip(nj.length);
 c0045d0:	008300b4 	movhi	r2,3074
 c0045d4:	10976004 	addi	r2,r2,23936
 c0045d8:	10800317 	ldw	r2,12(r2)
 c0045dc:	1009883a 	mov	r4,r2
 c0045e0:	c00442c0 	call	c00442c <njSkip>
}
 c0045e4:	e037883a 	mov	sp,fp
 c0045e8:	dfc00117 	ldw	ra,4(sp)
 c0045ec:	df000017 	ldw	fp,0(sp)
 c0045f0:	dec00204 	addi	sp,sp,8
 c0045f4:	f800283a 	ret

0c0045f8 <njDecodeSOF>:

NJ_INLINE void njDecodeSOF(void) {
 c0045f8:	defffa04 	addi	sp,sp,-24
 c0045fc:	dfc00515 	stw	ra,20(sp)
 c004600:	df000415 	stw	fp,16(sp)
 c004604:	df000404 	addi	fp,sp,16
    int i, ssxmax = 0, ssymax = 0;
 c004608:	e03ffd15 	stw	zero,-12(fp)
 c00460c:	e03ffe15 	stw	zero,-8(fp)
    nj_component_t* c;
    njDecodeLength();
 c004610:	c0045140 	call	c004514 <njDecodeLength>
    njCheckError();
 c004614:	008300b4 	movhi	r2,3074
 c004618:	10976004 	addi	r2,r2,23936
 c00461c:	10800017 	ldw	r2,0(r2)
 c004620:	10000126 	beq	r2,zero,c004628 <njDecodeSOF+0x30>
 c004624:	0001a006 	br	c004ca8 <njDecodeSOF+0x6b0>
    if (nj.length < 9) njThrow(NJ_SYNTAX_ERROR);
 c004628:	008300b4 	movhi	r2,3074
 c00462c:	10976004 	addi	r2,r2,23936
 c004630:	10800317 	ldw	r2,12(r2)
 c004634:	10800248 	cmpgei	r2,r2,9
 c004638:	1000051e 	bne	r2,zero,c004650 <njDecodeSOF+0x58>
 c00463c:	008300b4 	movhi	r2,3074
 c004640:	10976004 	addi	r2,r2,23936
 c004644:	00c00144 	movi	r3,5
 c004648:	10c00015 	stw	r3,0(r2)
 c00464c:	00019606 	br	c004ca8 <njDecodeSOF+0x6b0>
    if (nj.pos[0] != 8) njThrow(NJ_UNSUPPORTED);
 c004650:	008300b4 	movhi	r2,3074
 c004654:	10976004 	addi	r2,r2,23936
 c004658:	10800117 	ldw	r2,4(r2)
 c00465c:	10800003 	ldbu	r2,0(r2)
 c004660:	10803fcc 	andi	r2,r2,255
 c004664:	10800220 	cmpeqi	r2,r2,8
 c004668:	1000051e 	bne	r2,zero,c004680 <njDecodeSOF+0x88>
 c00466c:	008300b4 	movhi	r2,3074
 c004670:	10976004 	addi	r2,r2,23936
 c004674:	00c00084 	movi	r3,2
 c004678:	10c00015 	stw	r3,0(r2)
 c00467c:	00018a06 	br	c004ca8 <njDecodeSOF+0x6b0>
    nj.height = njDecode16(nj.pos+1);
 c004680:	008300b4 	movhi	r2,3074
 c004684:	10976004 	addi	r2,r2,23936
 c004688:	10800117 	ldw	r2,4(r2)
 c00468c:	10800044 	addi	r2,r2,1
 c004690:	1009883a 	mov	r4,r2
 c004694:	c0044cc0 	call	c0044cc <njDecode16>
 c004698:	10ffffcc 	andi	r3,r2,65535
 c00469c:	008300b4 	movhi	r2,3074
 c0046a0:	10976004 	addi	r2,r2,23936
 c0046a4:	10c00515 	stw	r3,20(r2)
    nj.width = njDecode16(nj.pos+3);
 c0046a8:	008300b4 	movhi	r2,3074
 c0046ac:	10976004 	addi	r2,r2,23936
 c0046b0:	10800117 	ldw	r2,4(r2)
 c0046b4:	108000c4 	addi	r2,r2,3
 c0046b8:	1009883a 	mov	r4,r2
 c0046bc:	c0044cc0 	call	c0044cc <njDecode16>
 c0046c0:	10ffffcc 	andi	r3,r2,65535
 c0046c4:	008300b4 	movhi	r2,3074
 c0046c8:	10976004 	addi	r2,r2,23936
 c0046cc:	10c00415 	stw	r3,16(r2)
    if (!nj.width || !nj.height) njThrow(NJ_SYNTAX_ERROR);
 c0046d0:	008300b4 	movhi	r2,3074
 c0046d4:	10976004 	addi	r2,r2,23936
 c0046d8:	10800417 	ldw	r2,16(r2)
 c0046dc:	10000426 	beq	r2,zero,c0046f0 <njDecodeSOF+0xf8>
 c0046e0:	008300b4 	movhi	r2,3074
 c0046e4:	10976004 	addi	r2,r2,23936
